Certificate:
    Data:
        Version: 3 (0x2)
        Serial Number: 1048585 (0x100009)
    Signature Algorithm: sha256WithRSAEncryption
        Issuer: CN=Hamiller Tube CA, C=US, ST=Massachusetts, O=Xamarin, OU=Engineering/emailAddress=martin.baulig@xamarin.com
        Validity
            Not Before: Sep  1 12:50:01 2016 GMT
            Not After : Aug 30 12:50:01 2026 GMT
        Subject: C=US, ST=Massachusetts, O=Xamarin, OU=Modify this number to get a different hash: 26, CN=Trusted Intermediate Test CA
        Subject Public Key Info:
            Public Key Algorithm: rsaEncryption
                Public-Key: (4096 bit)
                Modulus:
                    00:cb:5b:0b:13:1c:34:76:b9:3f:29:d2:f7:f1:19:
                    0e:4e:3c:d9:d5:d4:e3:6a:c2:2d:2e:62:5d:ff:fe:
                    1a:fd:4c:1b:e3:ad:a7:b2:75:3d:6b:4d:17:04:22:
                    39:04:ba:64:9a:4c:d4:96:3b:83:cd:a8:7f:19:ae:
                    0a:bd:04:0c:fc:4f:95:2e:ae:81:15:ab:f5:b8:e8:
                    5f:a1:23:44:f0:aa:c0:05:ce:6d:d9:0f:d5:da:50:
                    bd:60:e1:e5:31:ca:16:1d:0c:f5:ef:44:1e:e8:28:
                    2d:f7:5d:64:c8:38:58:c3:ad:65:5d:f6:40:10:72:
                    f5:00:98:96:56:48:62:0a:5d:ab:0b:11:5c:59:ac:
                    1f:65:aa:7e:5b:00:6c:23:80:ec:83:bf:ec:8c:14:
                    9f:0f:36:2a:a6:47:32:4f:38:71:8d:c9:48:5b:e2:
                    5c:21:04:ea:22:28:b1:2f:dd:e8:41:f3:70:39:05:
                    90:72:e5:c7:45:e5:8c:62:c5:ad:44:39:a2:a8:c7:
                    80:69:6c:fb:e6:2b:bc:ea:ed:b3:c4:50:24:e2:f9:
                    45:2a:00:97:d4:2c:d1:44:7f:db:45:fe:ef:60:7c:
                    25:bf:34:d1:23:12:4c:b8:03:79:d1:f3:8b:4a:43:
                    3e:cf:56:c4:3c:e8:60:ff:f9:e3:6a:b9:42:ab:e3:
                    67:d8:dc:b4:58:75:4c:fd:e7:09:80:c6:8f:25:b8:
                    03:75:08:00:f7:40:46:d4:83:1e:68:63:1c:cc:e5:
                    31:69:20:5a:d9:1d:1e:b5:50:b0:88:a4:f1:e8:6e:
                    64:16:25:ed:00:e0:46:13:5c:5f:c5:ca:d8:b5:5b:
                    bb:a4:3b:2c:98:63:f3:bf:0a:af:1e:18:5e:f7:5a:
                    46:68:83:85:c5:77:70:46:8b:b7:81:d3:eb:ec:84:
                    21:43:78:01:2a:24:78:8b:97:11:c2:b4:1b:79:f8:
                    e2:94:6e:f0:37:d8:cd:55:6c:a7:bc:ee:c1:42:df:
                    11:82:72:62:dc:9d:e4:71:73:ae:5d:b3:3b:cf:19:
                    5b:dc:54:2c:c2:9b:fc:a5:4b:b1:b8:6a:33:60:81:
                    ac:69:7a:f2:5f:6a:4f:6c:36:d1:79:08:9e:7c:8f:
                    c4:31:6f:6b:34:32:df:2c:6e:c4:56:74:b8:b8:dc:
                    f5:6f:97:53:1a:f7:42:e3:c4:8b:cc:d5:4e:13:d2:
                    09:a8:91:a6:d8:16:b6:b4:0a:ac:23:ce:0d:8d:44:
                    ec:9b:ee:78:67:56:42:2c:72:dd:f3:ce:53:69:40:
                    35:e9:23:da:97:0c:60:9f:f5:4e:ff:8d:a7:ed:b0:
                    ca:19:60:e3:ba:e5:57:c7:aa:9e:ad:8c:c3:af:13:
                    7b:71:53
                Exponent: 65537 (0x10001)
        X509v3 extensions:
            X509v3 Basic Constraints: critical
                CA:TRUE, pathlen:0
            X509v3 Key Usage: 
                Certificate Sign
    Signature Algorithm: sha256WithRSAEncryption
         95:94:62:08:76:57:40:0f:15:ac:c0:90:ad:9e:79:cb:72:7c:
         99:1f:83:eb:09:ff:79:01:c3:47:20:bd:0f:12:80:ab:4d:e6:
         fd:56:01:77:c9:c5:5d:86:9a:0f:d1:0b:c5:95:8d:7c:8c:db:
         50:33:b5:91:12:93:ff:9f:bd:3a:d8:8c:0d:3f:5a:0d:c8:c2:
         01:ae:bc:f5:90:08:c8:5f:53:b0:9d:64:1f:00:e9:f4:89:75:
         30:2c:35:18:a4:bc:74:c7:8a:55:84:8d:2e:4d:6c:e2:fd:4b:
         d3:de:f6:61:2a:96:48:9d:49:71:41:b7:c4:46:1a:79:51:84:
         49:b2:e7:90:d8:9b:5c:cf:60:ea:85:b2:81:25:21:88:29:f6:
         39:3f:ac:38:95:6b:44:4d:31:ff:27:9c:aa:45:75:5f:24:4b:
         f8:3d:7f:05:dc:f9:74:2e:cb:e5:48:c8:54:ef:d5:5f:c1:52:
         9e:bf:e8:37:64:18:90:30:92:41:1b:22:be:4e:63:15:6b:c1:
         24:97:23:b8:37:9b:17:16:18:20:86:f2:03:aa:a3:43:b0:a6:
         12:33:bb:0f:3c:6e:49:40:cf:20:e6:2e:ad:78:f7:44:e2:d6:
         1a:33:c1:5f:93:58:23:9a:9e:41:fa:79:eb:27:4b:3e:da:1f:
         97:1f:18:92:cc:34:49:44:48:f9:cf:22:ae:6f:5f:14:d8:6b:
         99:e2:9f:30:5e:3e:5b:f6:ef:ac:0d:1d:4c:30:e9:06:5d:4e:
         ed:5c:da:52:7d:2c:0f:bb:b4:18:9d:6b:e2:e4:4d:92:39:f9:
         9f:57:22:9a:17:83:2a:69:c3:c6:26:f6:85:29:fa:ca:47:b0:
         7e:e2:f3:6c:f4:c9:57:44:8c:5b:c3:bf:df:36:1c:72:01:dc:
         c6:2f:4a:b3:3f:39:8c:44:c3:68:66:06:e2:54:4b:08:f0:90:
         6e:7f:e8:07:74:27:17:7c:cd:66:b9:bf:59:56:aa:b6:81:e7:
         0f:e9:28:08:2b:38:0b:12:05:20:8f:bb:5f:9e:df:6d:c5:7d:
         15:57:4d:ce:84:00:46:01:f1:10:7d:ee:1c:37:f2:77:bc:82:
         aa:e2:3e:97:a5:8e:7b:98:5c:44:cf:a0:fd:7f:72:1d:44:46:
         32:29:9a:58:86:8e:f9:21:d6:aa:75:d5:2d:21:09:48:5d:ed:
         e2:4c:22:01:80:8c:d9:b9:b0:08:67:c3:5c:5f:af:bf:61:fa:
         d5:3c:f9:2e:f5:07:dc:e0:62:e8:30:de:33:45:e3:71:76:99:
         1a:ab:de:22:f8:ed:97:f2:c4:40:10:a9:39:2a:89:7b:46:91:
         91:18:2f:e1:34:27:15:08
-----BEGIN CERTIFICATE-----
MIIFyzCCA7OgAwIBAgIDEAAJMA0GCSqGSIb3DQEBCwUAMIGSMRkwFwYDVQQDExBI
YW1pbGxlciBUdWJlIENBMQswCQYDVQQGEwJVUzEWMBQGA1UECBMNTWFzc2FjaHVz
ZXR0czEQMA4GA1UEChMHWGFtYXJpbjEUMBIGA1UECxMLRW5naW5lZXJpbmcxKDAm
BgkqhkiG9w0BCQEWGW1hcnRpbi5iYXVsaWdAeGFtYXJpbi5jb20wHhcNMTYwOTAx
MTI1MDAxWhcNMjYwODMwMTI1MDAxWjCBlzELMAkGA1UEBhMCVVMxFjAUBgNVBAgT
DU1hc3NhY2h1c2V0dHMxEDAOBgNVBAoTB1hhbWFyaW4xNzA1BgNVBAsTLk1vZGlm
eSB0aGlzIG51bWJlciB0byBnZXQgYSBkaWZmZXJlbnQgaGFzaDogMjYxJTAjBgNV
BAMTHFRydXN0ZWQgSW50ZXJtZWRpYXRlIFRlc3QgQ0EwggIiMA0GCSqGSIb3DQEB
AQUAA4ICDwAwggIKAoICAQDLWwsTHDR2uT8p0vfxGQ5OPNnV1ONqwi0uYl3//hr9
TBvjraeydT1rTRcEIjkEumSaTNSWO4PNqH8Zrgq9BAz8T5UuroEVq/W46F+hI0Tw
qsAFzm3ZD9XaUL1g4eUxyhYdDPXvRB7oKC33XWTIOFjDrWVd9kAQcvUAmJZWSGIK
XasLEVxZrB9lqn5bAGwjgOyDv+yMFJ8PNiqmRzJPOHGNyUhb4lwhBOoiKLEv3ehB
83A5BZBy5cdF5Yxixa1EOaKox4BpbPvmK7zq7bPEUCTi+UUqAJfULNFEf9tF/u9g
fCW/NNEjEky4A3nR84tKQz7PVsQ86GD/+eNquUKr42fY3LRYdUz95wmAxo8luAN1
CAD3QEbUgx5oYxzM5TFpIFrZHR61ULCIpPHobmQWJe0A4EYTXF/Fyti1W7ukOyyY
Y/O/Cq8eGF73WkZog4XFd3BGi7eB0+vshCFDeAEqJHiLlxHCtBt5+OKUbvA32M1V
bKe87sFC3xGCcmLcneRxc65dszvPGVvcVCzCm/ylS7G4ajNggaxpevJfak9sNtF5
CJ58j8Qxb2s0Mt8sbsRWdLi43PVvl1Ma90LjxIvM1U4T0gmokabYFra0Cqwjzg2N
ROyb7nhnVkIsct3zzlNpQDXpI9qXDGCf9U7/jaftsMoZYOO65VfHqp6tjMOvE3tx
UwIDAQABoyMwITASBgNVHRMBAf8ECDAGAQH/AgEAMAsGA1UdDwQEAwICBDANBgkq
hkiG9w0BAQsFAAOCAgEAlZRiCHZXQA8VrMCQrZ55y3J8mR+D6wn/eQHDRyC9DxKA
q03m/VYBd8nFXYaaD9ELxZWNfIzbUDO1kRKT/5+9OtiMDT9aDcjCAa689ZAIyF9T
sJ1kHwDp9Il1MCw1GKS8dMeKVYSNLk1s4v1L0972YSqWSJ1JcUG3xEYaeVGESbLn
kNibXM9g6oWygSUhiCn2OT+sOJVrRE0x/yecqkV1XyRL+D1/Bdz5dC7L5UjIVO/V
X8FSnr/oN2QYkDCSQRsivk5jFWvBJJcjuDebFxYYIIbyA6qjQ7CmEjO7DzxuSUDP
IOYurXj3ROLWGjPBX5NYI5qeQfp56ydLPtoflx8Yksw0SURI+c8irm9fFNhrmeKf
MF4+W/bvrA0dTDDpBl1O7VzaUn0sD7u0GJ1r4uRNkjn5n1cimheDKmnDxib2hSn6
ykewfuLzbPTJV0SMW8O/3zYccgHcxi9Ksz85jETDaGYG4lRLCPCQbn/oB3QnF3zN
Zrm/WVaqtoHnD+koCCs4CxIFII+7X57fbcV9FVdNzoQARgHxEH3uHDfyd7yCquI+
l6WOe5hcRM+g/X9yHURGMimaWIaO+SHWqnXVLSEJSF3t4kwiAYCM2bmwCGfDXF+v
v2H61Tz5LvUH3OBi6DDeM0XjcXaZGqveIvjtl/LEQBCpOSqJe0aRkRgv4TQnFQg=
-----END CERTIFICATE-----
