Certificate:
    Data:
        Version: 3 (0x2)
        Serial Number: 1048586 (0x10000a)
    Signature Algorithm: sha256WithRSAEncryption
        Issuer: C=US, ST=Massachusetts, O=Xamarin, OU=Modify this number to get a different hash: 26, CN=Trusted Intermediate Test CA
        Validity
            Not Before: Sep  6 01:29:32 2016 GMT
            Not After : Sep  4 01:29:32 2026 GMT
        Subject: C=US, ST=Massachusetts, O=Xamarin, OU=Server Certificate using Trusted IM CA, CN=Trusted-IM-Server.local
        Subject Public Key Info:
            Public Key Algorithm: rsaEncryption
                Public-Key: (4096 bit)
                Modulus:
                    00:dd:c2:70:c1:b4:25:9c:0f:46:39:5e:27:c8:e0:
                    d8:52:72:ba:f8:ab:64:42:7c:8d:58:36:ff:80:fa:
                    ec:b0:57:23:31:cc:9c:06:8d:3e:76:5a:aa:79:ad:
                    ba:67:c0:82:89:60:9d:02:a4:3e:20:0e:14:66:07:
                    e5:85:5a:c3:69:d5:79:04:f9:0f:3d:40:ef:6a:2d:
                    17:2e:46:23:06:15:84:e0:a3:68:b6:fa:b3:04:83:
                    3b:e0:cb:ac:7b:fa:a0:e7:e1:38:76:98:ed:df:4f:
                    f9:1c:62:0f:07:c6:43:5a:63:51:9e:01:7b:ce:14:
                    85:29:8e:e8:37:69:8c:9a:9b:76:75:da:21:20:5a:
                    c4:24:b2:87:b8:2f:10:f5:18:f9:bb:81:d6:22:0b:
                    c3:89:3a:bd:eb:fe:b6:95:74:6c:ca:68:92:f8:bb:
                    6f:0c:fb:f4:3e:ff:65:f4:fe:87:c3:2f:c8:45:19:
                    2d:d6:a7:78:ea:33:fc:6b:0f:29:32:a8:9a:fa:67:
                    49:2b:2c:5d:97:ca:a4:ee:c8:a7:32:88:61:cd:1b:
                    2f:65:33:99:c1:86:10:c8:8b:ad:52:0d:2f:63:12:
                    d9:49:6f:bd:58:b4:44:33:e8:7d:af:c3:cd:d2:62:
                    67:52:93:a6:2e:35:6e:54:31:e6:33:94:44:3f:2c:
                    57:51:41:86:e5:50:74:27:5c:b9:e6:84:e8:35:ce:
                    cf:12:30:49:ec:80:a3:f2:95:ca:ee:91:65:fc:c5:
                    1f:cd:d1:2a:62:6a:09:53:73:17:52:22:31:ba:57:
                    5e:45:74:ac:4d:d0:48:c6:0a:fa:29:e7:28:3f:38:
                    af:bd:1f:14:46:a8:f7:b6:9c:ac:0e:af:83:bc:ef:
                    91:d0:cd:31:70:e2:75:c5:8d:36:fa:e9:44:90:b0:
                    80:04:92:64:27:9d:f7:8b:55:23:df:2b:af:d3:ed:
                    1a:13:fd:b4:a0:20:fc:49:b4:f5:36:f6:9a:aa:e0:
                    0d:fd:7f:52:d6:91:a9:bc:bd:6d:4c:56:7d:47:aa:
                    eb:9f:a5:62:8d:47:d7:19:66:fa:30:6a:ea:22:eb:
                    d7:dd:d9:bd:7f:e2:ec:dc:7a:0e:78:26:ee:85:b7:
                    3c:22:e5:9d:b6:30:ad:37:e2:3c:41:23:4a:ef:0c:
                    5a:68:f1:d8:ea:46:69:6e:ca:6f:2f:58:a3:70:21:
                    26:cc:29:ff:4d:24:37:ef:69:0b:64:23:2f:d6:2c:
                    5a:80:88:06:46:bf:5d:4e:e5:c0:82:af:c9:20:59:
                    28:51:63:ab:db:bc:0f:1b:fa:ba:7a:bd:6c:4f:43:
                    57:9c:4e:13:17:79:19:ba:89:57:0e:82:80:0c:35:
                    75:d3:31
                Exponent: 65537 (0x10001)
        X509v3 extensions:
            X509v3 Key Usage: critical
                Digital Signature, Key Encipherment
            X509v3 Extended Key Usage: critical
                TLS Web Server Authentication
    Signature Algorithm: sha256WithRSAEncryption
         81:70:c9:b1:75:0e:90:e4:14:4d:a8:e9:40:81:d7:f1:17:4a:
         2c:b3:62:86:b1:18:e3:cb:a6:c9:b9:00:22:58:51:76:cd:73:
         cc:fb:ef:83:05:95:b0:9a:b4:4c:bf:23:52:4a:89:9e:36:27:
         5f:fa:85:8e:fe:27:21:be:6e:f8:a3:25:b1:52:81:39:82:4b:
         6f:39:02:5c:6e:e0:f8:93:cd:06:4a:31:9e:0e:dd:58:b9:22:
         3d:7c:26:2d:a9:11:62:c7:bf:04:4d:c2:bd:1f:34:c3:68:14:
         fe:19:69:1c:88:58:46:e4:9e:e6:d8:31:d6:09:5c:3a:e5:49:
         e3:98:fd:ae:c8:12:b5:77:80:dc:2d:e3:9a:e5:35:31:68:fc:
         1e:14:5a:08:e4:6d:4c:ec:fb:ff:34:02:97:76:7d:4b:18:e4:
         a3:3d:52:75:93:24:fa:a6:fc:72:3d:cf:e7:40:a5:7b:a5:ee:
         88:08:6a:88:2e:19:68:73:f3:4f:64:80:a7:ca:04:b1:fa:a8:
         1e:11:0e:ab:68:94:07:32:27:0a:a6:1e:a1:cc:6b:54:56:e6:
         7d:10:7a:c0:06:d9:59:3f:c6:8a:26:64:05:60:f8:4a:db:31:
         4d:3b:6b:67:ad:c4:4c:a4:9f:bf:a3:13:e8:94:c2:dc:b8:69:
         59:cc:72:d0:ca:25:e4:cd:df:ff:91:88:39:60:f4:bb:12:f6:
         c4:b2:a0:a1:50:d9:06:a0:16:c7:05:c8:5f:61:f3:c8:e1:52:
         5c:eb:35:4d:46:e2:da:2a:07:a9:9d:7f:20:55:78:e4:69:88:
         3f:a8:ad:ee:8c:1e:c5:c3:4e:13:8b:59:3e:96:c5:ac:2d:9f:
         56:0a:89:6b:fa:b8:8b:d7:12:44:66:e4:9a:fd:6a:56:a9:79:
         77:97:80:59:6e:ac:d9:fc:1b:00:f9:51:8f:1a:9c:a9:4d:d0:
         37:5a:63:f6:69:aa:fd:27:0e:b4:0a:9c:c2:c5:cc:d0:c9:00:
         02:b6:4c:5b:bd:8f:ab:65:17:37:97:34:42:09:6e:6c:79:c4:
         55:1a:f1:d3:52:8b:fb:72:8a:0f:68:0b:e3:e4:26:61:2b:cd:
         72:b4:6c:1b:e7:55:53:ba:dc:4e:a4:18:df:39:18:c7:06:e6:
         76:ed:93:b1:62:e0:23:77:df:fa:d7:88:81:66:5c:51:1d:bd:
         d3:80:ac:6d:c1:6c:20:7e:44:cb:77:6e:c6:df:23:c9:45:50:
         38:03:05:f0:88:c1:85:91:7e:39:8b:22:49:bc:c9:de:9e:4a:
         4d:10:ac:17:ff:00:42:4e:06:23:98:b7:cf:ca:48:f0:8a:16:
         2c:b3:a9:9e:f0:6e:89:08
-----BEGIN CERTIFICATE-----
MIIFyjCCA7KgAwIBAgIDEAAKMA0GCSqGSIb3DQEBCwUAMIGXMQswCQYDVQQGEwJV
UzEWMBQGA1UECBMNTWFzc2FjaHVzZXR0czEQMA4GA1UEChMHWGFtYXJpbjE3MDUG
A1UECxMuTW9kaWZ5IHRoaXMgbnVtYmVyIHRvIGdldCBhIGRpZmZlcmVudCBoYXNo
OiAyNjElMCMGA1UEAxMcVHJ1c3RlZCBJbnRlcm1lZGlhdGUgVGVzdCBDQTAeFw0x
NjA5MDYwMTI5MzJaFw0yNjA5MDQwMTI5MzJaMIGKMQswCQYDVQQGEwJVUzEWMBQG
A1UECBMNTWFzc2FjaHVzZXR0czEQMA4GA1UEChMHWGFtYXJpbjEvMC0GA1UECxMm
U2VydmVyIENlcnRpZmljYXRlIHVzaW5nIFRydXN0ZWQgSU0gQ0ExIDAeBgNVBAMT
F1RydXN0ZWQtSU0tU2VydmVyLmxvY2FsMIICIjANBgkqhkiG9w0BAQEFAAOCAg8A
MIICCgKCAgEA3cJwwbQlnA9GOV4nyODYUnK6+KtkQnyNWDb/gPrssFcjMcycBo0+
dlqqea26Z8CCiWCdAqQ+IA4UZgflhVrDadV5BPkPPUDvai0XLkYjBhWE4KNotvqz
BIM74Muse/qg5+E4dpjt30/5HGIPB8ZDWmNRngF7zhSFKY7oN2mMmpt2ddohIFrE
JLKHuC8Q9Rj5u4HWIgvDiTq96/62lXRsymiS+LtvDPv0Pv9l9P6Hwy/IRRkt1qd4
6jP8aw8pMqia+mdJKyxdl8qk7sinMohhzRsvZTOZwYYQyIutUg0vYxLZSW+9WLRE
M+h9r8PN0mJnUpOmLjVuVDHmM5REPyxXUUGG5VB0J1y55oToNc7PEjBJ7ICj8pXK
7pFl/MUfzdEqYmoJU3MXUiIxuldeRXSsTdBIxgr6KecoPzivvR8URqj3tpysDq+D
vO+R0M0xcOJ1xY02+ulEkLCABJJkJ533i1Uj3yuv0+0aE/20oCD8SbT1NvaaquAN
/X9S1pGpvL1tTFZ9R6rrn6VijUfXGWb6MGrqIuvX3dm9f+Ls3HoOeCbuhbc8IuWd
tjCtN+I8QSNK7wxaaPHY6kZpbspvL1ijcCEmzCn/TSQ372kLZCMv1ixagIgGRr9d
TuXAgq/JIFkoUWOr27wPG/q6er1sT0NXnE4TF3kZuolXDoKADDV10zECAwEAAaMq
MCgwDgYDVR0PAQH/BAQDAgWgMBYGA1UdJQEB/wQMMAoGCCsGAQUFBwMBMA0GCSqG
SIb3DQEBCwUAA4ICAQCBcMmxdQ6Q5BRNqOlAgdfxF0oss2KGsRjjy6bJuQAiWFF2
zXPM+++DBZWwmrRMvyNSSomeNidf+oWO/ichvm74oyWxUoE5gktvOQJcbuD4k80G
SjGeDt1YuSI9fCYtqRFix78ETcK9HzTDaBT+GWkciFhG5J7m2DHWCVw65UnjmP2u
yBK1d4DcLeOa5TUxaPweFFoI5G1M7Pv/NAKXdn1LGOSjPVJ1kyT6pvxyPc/nQKV7
pe6ICGqILhloc/NPZICnygSx+qgeEQ6raJQHMicKph6hzGtUVuZ9EHrABtlZP8aK
JmQFYPhK2zFNO2tnrcRMpJ+/oxPolMLcuGlZzHLQyiXkzd//kYg5YPS7EvbEsqCh
UNkGoBbHBchfYfPI4VJc6zVNRuLaKgepnX8gVXjkaYg/qK3ujB7Fw04Ti1k+lsWs
LZ9WColr+riL1xJEZuSa/WpWqXl3l4BZbqzZ/BsA+VGPGpypTdA3WmP2aar9Jw60
CpzCxczQyQACtkxbvY+rZRc3lzRCCW5secRVGvHTUov7cooPaAvj5CZhK81ytGwb
51VTutxOpBjfORjHBuZ27ZOxYuAjd9/614iBZlxRHb3TgKxtwWwgfkTLd27G3yPJ
RVA4AwXwiMGFkX45iyJJvMnenkpNEKwX/wBCTgYjmLfPykjwihYss6me8G6JCA==
-----END CERTIFICATE-----
