Certificate:
    Data:
        Version: 3 (0x2)
        Serial Number: 1048581 (0x100005)
    Signature Algorithm: md5WithRSAEncryption
        Issuer: C=US, ST=Massachusetts, O=Xamarin, OU=Engineering, CN=Hamiller-Tube CA/emailAddress=martin.baulig@xamarin.com
        Validity
            Not Before: Aug 10 03:12:12 2015 GMT
            Not After : Aug  7 03:12:12 2025 GMT
        Subject: C=US, ST=Massachusetts, O=Xamarin, OU=Engineering, CN=Hamiller-Tube.local
        Subject Public Key Info:
            Public Key Algorithm: rsaEncryption
                Public-Key: (4096 bit)
                Modulus:
                    00:d2:fb:0d:51:a5:d9:db:10:c9:5b:3d:e3:39:e7:
                    c3:47:83:b9:f6:0c:3d:a9:59:48:c9:b8:f7:87:ae:
                    d8:df:fd:0d:e7:1f:4e:d0:e7:cb:ad:7d:10:22:90:
                    f2:f6:7c:61:14:55:67:f3:89:c3:91:55:18:42:45:
                    51:2b:8e:8c:1a:d4:f2:e7:ab:03:99:90:e8:37:42:
                    cb:2b:e2:be:fc:fb:05:2a:f0:33:63:b5:11:9d:5a:
                    a5:f1:f5:5d:31:d9:ea:e1:be:79:7a:ee:cf:2b:c1:
                    ed:1c:2a:c3:eb:ae:b0:c7:e6:a6:e2:1e:a4:98:38:
                    6f:e0:13:5d:dc:10:98:ab:b7:59:40:08:1a:2a:61:
                    56:c1:27:d7:91:dd:c8:0e:11:ef:89:f3:1b:6d:b7:
                    ec:ee:b1:4b:dd:16:39:35:00:c8:e9:b3:49:0c:85:
                    d8:d5:57:19:24:80:5e:d0:0a:64:9c:df:79:69:b5:
                    42:58:fb:6a:a3:03:b2:fd:b1:e7:c6:64:8d:a8:a8:
                    7f:28:03:49:ae:aa:25:85:71:41:b1:de:a7:7a:78:
                    73:d5:6f:2c:29:d6:0d:dd:03:1d:f9:f7:e3:c2:db:
                    a4:e9:7b:77:41:53:4d:4c:28:1e:e9:db:88:05:3e:
                    62:05:a1:ab:98:f3:6c:45:36:a2:e0:23:0c:a0:47:
                    bd:47:27:c1:24:c1:4f:57:6d:41:92:d7:70:87:23:
                    08:58:8a:77:50:c6:25:bd:4a:7a:03:ab:71:15:e9:
                    b5:ac:5d:9a:a5:d1:03:b8:87:75:61:4c:76:56:ea:
                    4e:f1:89:a7:cc:39:2f:9f:c4:e3:64:42:51:da:c4:
                    2a:d7:4a:b0:a6:32:85:1d:7e:07:4c:de:f3:e8:76:
                    78:df:bc:05:c9:00:45:25:53:68:a7:e3:c7:c6:52:
                    36:8e:4e:76:6d:e0:49:ac:27:11:58:cf:7f:b8:03:
                    22:be:d5:f6:03:48:eb:93:63:4d:5c:f0:44:31:f5:
                    44:2d:6c:ca:ae:f6:0e:c1:05:e1:df:de:30:db:5b:
                    7e:ad:a6:42:02:42:25:de:ec:3c:90:47:30:b6:e1:
                    34:74:b8:38:82:32:07:c9:41:45:10:6a:0f:5e:0a:
                    7e:96:ef:39:ae:a3:94:88:5f:f2:06:ce:af:12:17:
                    4e:00:ea:cd:72:14:8d:c1:62:42:df:3e:c1:21:07:
                    87:fa:02:81:77:95:05:88:aa:74:92:00:6e:d6:6a:
                    67:60:09:f6:81:5d:68:d4:5d:f9:62:1c:99:16:7f:
                    13:c2:51:69:f6:af:ae:3e:bd:47:bb:1f:38:63:ba:
                    46:8e:13:75:9e:7e:06:a9:ef:61:f2:49:28:a3:07:
                    23:83:0f
                Exponent: 65537 (0x10001)
        X509v3 extensions:
            X509v3 Key Usage: critical
                Digital Signature, Key Encipherment
            X509v3 Extended Key Usage: critical
                TLS Web Server Authentication
    Signature Algorithm: md5WithRSAEncryption
         90:d5:59:59:45:b2:35:b9:83:38:b8:48:3f:6e:1f:72:85:9e:
         e8:c9:44:08:e5:85:2f:69:ce:3d:e0:24:89:72:cc:5b:04:1a:
         d2:1f:b1:b1:05:38:ef:7f:95:de:15:86:a5:70:31:ad:68:af:
         49:e2:4b:8f:a7:52:12:20:ab:7d:8e:2f:18:a8:7a:8e:e4:b9:
         58:9a:db:e8:8d:53:dc:31:56:39:dc:f4:03:e1:57:66:c4:3b:
         88:be:62:df:c9:46:30:8f:94:83:8d:8e:53:99:46:b9:b5:29:
         9d:a1:a1:85:ee:49:1a:ac:b5:13:3e:1f:b7:b6:cb:31:f5:04:
         ec:c4:d5:36:3f:b1:d4:2a:9b:24:11:30:25:fa:61:ed:bc:08:
         88:e3:a4:67:56:a0:1e:13:f4:58:d9:53:0e:06:70:a0:3d:ea:
         d5:9f:67:95:d4:34:70:19:6b:54:71:57:f6:f7:8c:b0:c0:37:
         b2:80:bf:29:28:b1:c3:d3:53:6d:8a:fe:f3:28:8f:af:bf:40:
         93:b7:2f:75:61:69:e0:6e:c3:f4:fb:16:c6:6a:5f:a9:04:9b:
         cc:a2:60:b7:16:1a:e5:36:7f:d7:1f:a1:11:15:5d:e7:62:87:
         52:23:44:99:f4:7d:82:02:c7:d1:91:47:61:1a:48:1d:03:bb:
         5b:3e:3c:76:89:c2:b1:b4:fa:8f:cd:14:1f:68:66:90:b5:4b:
         09:8d:7e:e0:d6:b7:28:69:8f:0c:95:20:11:d4:4e:ec:3f:24:
         12:16:56:45:4e:15:76:18:bb:78:a3:b7:ca:c8:84:eb:21:74:
         3b:4f:b5:39:d9:8f:ec:41:7e:3e:aa:9e:b9:36:f9:82:b1:fb:
         d2:1d:08:f5:a1:02:05:db:60:4c:1f:b3:62:ab:03:ab:f8:83:
         92:36:b7:28:df:06:bb:1a:63:2e:74:dc:6b:0e:e6:15:f9:cc:
         3e:f4:22:cd:1f:a1:89:cb:58:aa:d1:ad:3a:7d:ba:54:6a:a3:
         b5:ea:c4:bf:69:57:68:ff:2e:9e:f9:0e:2f:77:82:3d:7d:3c:
         b9:93:b9:99:c8:d0:55:df:2e:8a:cc:a1:e6:98:ef:4d:21:33:
         6e:d0:69:45:6e:62:02:37:38:4b:4b:21:21:85:ec:15:c5:f0:
         02:7d:37:fa:53:9f:9b:17:93:51:9b:57:32:d6:00:83:0f:f9:
         39:4b:de:1c:e1:2e:5b:6a:cb:54:5b:f4:55:ab:49:7e:1c:62:
         c5:0a:56:07:7a:ac:48:b8:71:06:4e:8b:e9:30:3c:4c:34:0a:
         39:f4:c5:5e:3c:59:84:40:68:66:0a:23:66:32:e0:b2:d5:39:
         fc:d5:e9:77:c8:14:1e:32
-----BEGIN CERTIFICATE-----
MIIFpTCCA42gAwIBAgIDEAAFMA0GCSqGSIb3DQEBBAUAMIGSMQswCQYDVQQGEwJV
UzEWMBQGA1UECBMNTWFzc2FjaHVzZXR0czEQMA4GA1UEChMHWGFtYXJpbjEUMBIG
A1UECxMLRW5naW5lZXJpbmcxGTAXBgNVBAMTEEhhbWlsbGVyLVR1YmUgQ0ExKDAm
BgkqhkiG9w0BCQEWGW1hcnRpbi5iYXVsaWdAeGFtYXJpbi5jb20wHhcNMTUwODEw
MDMxMjEyWhcNMjUwODA3MDMxMjEyWjBrMQswCQYDVQQGEwJVUzEWMBQGA1UECBMN
TWFzc2FjaHVzZXR0czEQMA4GA1UEChMHWGFtYXJpbjEUMBIGA1UECxMLRW5naW5l
ZXJpbmcxHDAaBgNVBAMTE0hhbWlsbGVyLVR1YmUubG9jYWwwggIiMA0GCSqGSIb3
DQEBAQUAA4ICDwAwggIKAoICAQDS+w1RpdnbEMlbPeM558NHg7n2DD2pWUjJuPeH
rtjf/Q3nH07Q58utfRAikPL2fGEUVWfzicORVRhCRVErjowa1PLnqwOZkOg3Qssr
4r78+wUq8DNjtRGdWqXx9V0x2erhvnl67s8rwe0cKsPrrrDH5qbiHqSYOG/gE13c
EJirt1lACBoqYVbBJ9eR3cgOEe+J8xttt+zusUvdFjk1AMjps0kMhdjVVxkkgF7Q
CmSc33lptUJY+2qjA7L9sefGZI2oqH8oA0muqiWFcUGx3qd6eHPVbywp1g3dAx35
9+PC26Tpe3dBU01MKB7p24gFPmIFoauY82xFNqLgIwygR71HJ8EkwU9XbUGS13CH
IwhYindQxiW9SnoDq3EV6bWsXZql0QO4h3VhTHZW6k7xiafMOS+fxONkQlHaxCrX
SrCmMoUdfgdM3vPodnjfvAXJAEUlU2in48fGUjaOTnZt4EmsJxFYz3+4AyK+1fYD
SOuTY01c8EQx9UQtbMqu9g7BBeHf3jDbW36tpkICQiXe7DyQRzC24TR0uDiCMgfJ
QUUQag9eCn6W7zmuo5SIX/IGzq8SF04A6s1yFI3BYkLfPsEhB4f6AoF3lQWIqnSS
AG7WamdgCfaBXWjUXfliHJkWfxPCUWn2r64+vUe7HzhjukaOE3Wefgap72HySSij
ByODDwIDAQABoyowKDAOBgNVHQ8BAf8EBAMCBaAwFgYDVR0lAQH/BAwwCgYIKwYB
BQUHAwEwDQYJKoZIhvcNAQEEBQADggIBAJDVWVlFsjW5gzi4SD9uH3KFnujJRAjl
hS9pzj3gJIlyzFsEGtIfsbEFOO9/ld4VhqVwMa1or0niS4+nUhIgq32OLxioeo7k
uVia2+iNU9wxVjnc9APhV2bEO4i+Yt/JRjCPlIONjlOZRrm1KZ2hoYXuSRqstRM+
H7e2yzH1BOzE1TY/sdQqmyQRMCX6Ye28CIjjpGdWoB4T9FjZUw4GcKA96tWfZ5XU
NHAZa1RxV/b3jLDAN7KAvykoscPTU22K/vMoj6+/QJO3L3VhaeBuw/T7FsZqX6kE
m8yiYLcWGuU2f9cfoREVXedih1IjRJn0fYICx9GRR2EaSB0Du1s+PHaJwrG0+o/N
FB9oZpC1SwmNfuDWtyhpjwyVIBHUTuw/JBIWVkVOFXYYu3ijt8rIhOshdDtPtTnZ
j+xBfj6qnrk2+YKx+9IdCPWhAgXbYEwfs2KrA6v4g5I2tyjfBrsaYy503GsO5hX5
zD70Is0foYnLWKrRrTp9ulRqo7XqxL9pV2j/Lp75Di93gj19PLmTuZnI0FXfLorM
oeaY700hM27QaUVuYgI3OEtLISGF7BXF8AJ9N/pTn5sXk1GbVzLWAIMP+TlL3hzh
Lltqy1Rb9FWrSX4cYsUKVgd6rEi4cQZOi+kwPEw0Cjn0xV48WYRAaGYKI2Yy4LLV
OfzV6XfIFB4y
-----END CERTIFICATE-----
