Certificate:
    Data:
        Version: 3 (0x2)
        Serial Number: 1048577 (0x100001)
    Signature Algorithm: sha256WithRSAEncryption
        Issuer: CN=Hamiller-Tube.local, C=US, ST=Massachusetts, O=Xamarin, OU=Engineering/emailAddress=martin.baulig@xamarin.com
        Validity
            Not Before: Aug 10 08:09:12 2015 GMT
            Not After : Aug  7 08:09:12 2025 GMT
        Subject: C=US, ST=Massachusetts, O=Xamarin, OU=Engineering, CN=Hamiller-Tube.local
        Subject Public Key Info:
            Public Key Algorithm: rsaEncryption
                Public-Key: (4096 bit)
                Modulus:
                    00:c7:c1:01:b4:0f:e7:dd:b0:2d:74:dc:17:7f:22:
                    23:da:7d:63:ab:71:92:0c:ea:4d:b6:22:f9:16:97:
                    d8:d3:60:74:cb:1b:e3:3c:5d:9f:76:83:3f:11:5f:
                    68:c5:45:79:d8:d7:ac:ca:d0:58:c5:81:87:11:29:
                    e9:ec:13:13:bc:52:ba:2c:19:22:bc:6f:93:5e:d6:
                    71:33:52:ac:99:6e:13:1c:b8:4b:cc:98:b9:c7:dc:
                    23:ae:66:56:07:fd:76:68:fd:fe:ed:c0:34:09:39:
                    6e:36:80:8f:08:d8:be:cc:9d:6d:14:a6:64:ee:a4:
                    b7:a8:62:34:9b:c7:02:6d:be:82:a0:88:a9:be:9f:
                    9c:c0:3c:69:1d:10:14:ac:c5:2f:8f:22:6a:e3:00:
                    01:da:ee:ca:f2:c6:91:0c:f8:10:11:bb:2a:b0:53:
                    72:3b:96:a4:46:b3:43:39:22:5c:6f:6d:30:68:dc:
                    1a:cc:1d:84:61:5d:0a:13:48:d2:f7:27:4a:0e:ef:
                    ae:aa:1b:7f:a9:44:6f:72:b6:3a:e6:db:e5:7c:30:
                    64:79:32:cb:02:0e:bf:79:1c:a4:32:d7:7f:e2:56:
                    07:40:3b:35:b3:fe:23:c7:8d:c3:5e:1d:00:74:ec:
                    41:97:d9:02:17:24:01:08:e0:34:d5:b3:8d:56:84:
                    1e:63:35:47:60:af:d4:d0:bd:c7:27:6d:be:00:08:
                    93:5d:f8:67:0d:58:93:60:63:b2:6f:d6:40:04:28:
                    32:1c:e8:eb:a8:ee:08:6d:aa:e2:03:9e:76:5d:b3:
                    05:4b:22:df:42:aa:4b:aa:03:c0:a9:16:49:d9:9b:
                    1b:a2:de:5d:1b:9e:67:55:51:92:d3:d1:3b:fa:ac:
                    37:fb:f4:73:6d:0f:c1:f2:30:8d:74:bc:03:41:9f:
                    89:dc:45:24:30:a6:78:73:05:ec:96:ec:58:1a:1a:
                    54:2c:8c:65:74:1d:ba:05:e8:09:37:df:81:8f:4d:
                    f6:a1:4c:d5:67:54:18:38:c3:c0:51:11:51:f2:77:
                    ce:27:dc:37:81:d5:30:97:af:ce:ef:53:7d:03:eb:
                    f0:dc:95:c5:25:82:b0:c1:ce:50:a7:84:b8:e5:bf:
                    36:82:ff:f1:26:da:53:bc:c2:92:41:95:3f:c2:de:
                    49:f5:d0:80:d4:91:67:8b:4a:e7:8c:62:3e:77:b0:
                    88:03:07:e8:fb:63:44:ac:dd:d1:84:a6:52:00:a6:
                    e6:c5:b1:b7:5b:9b:b5:13:ec:38:66:ba:37:36:b7:
                    2c:79:a7:31:24:ca:cb:d5:29:41:8d:35:62:ef:7a:
                    b7:6c:13:a7:6b:c0:12:37:51:2e:12:3d:b4:8e:5b:
                    b2:39:bb
                Exponent: 65537 (0x10001)
        X509v3 extensions:
            X509v3 Key Usage: critical
                Digital Signature, Key Encipherment
            X509v3 Extended Key Usage: critical
                TLS Web Server Authentication
    Signature Algorithm: sha256WithRSAEncryption
         71:1b:7a:c4:bf:f9:8c:23:68:4f:2e:5f:3e:ff:5b:b1:59:75:
         90:f6:ba:b7:37:32:4d:ed:76:08:57:92:7f:d8:e8:80:32:b3:
         64:c4:49:c5:be:b2:aa:eb:48:e2:24:bf:fd:db:24:39:bd:18:
         0f:03:54:0d:bc:fa:36:25:65:03:44:0c:13:fb:ac:9f:59:0f:
         73:79:76:29:a6:5b:51:1e:0b:4c:dd:19:7a:3b:76:49:7b:48:
         b4:d0:80:f8:8c:40:62:81:56:ff:8e:ca:59:35:0a:77:bc:86:
         31:d1:87:28:3a:5c:c0:57:ce:39:9e:94:ae:10:85:12:48:4a:
         b5:4c:4e:45:b7:c9:35:24:b4:1d:64:5a:11:0f:07:2f:ec:46:
         c6:1b:b7:6d:5b:d2:e1:c4:9c:3b:16:5e:80:16:33:fa:02:01:
         d7:c2:2a:6a:41:82:16:d1:54:06:b2:45:18:14:2d:aa:68:95:
         ae:ae:6e:88:f7:4b:37:8a:94:80:91:88:bc:e4:04:61:28:69:
         77:09:d4:af:2c:3f:33:0b:d3:a7:05:c3:60:f4:5d:08:dd:86:
         0d:3a:82:f5:b3:d4:53:04:ea:ba:19:54:43:3b:88:86:26:31:
         c2:b2:7e:0c:c9:36:80:73:f9:24:7c:ed:34:e6:39:bd:89:fc:
         05:f7:95:94:d6:91:4c:fe:ef:23:85:39:5f:05:2d:a8:60:aa:
         ea:60:1a:a7:af:f9:58:7e:53:a0:83:bb:00:52:b3:44:a6:27:
         5e:d6:a8:1f:58:c8:d8:32:8a:33:0b:9e:6b:c2:bb:10:93:8e:
         b1:c7:0e:a2:0c:c0:71:bf:02:4b:4f:17:4c:19:33:83:26:57:
         32:d2:05:0e:80:a5:bd:1f:17:78:0e:50:9a:f8:73:ed:63:6e:
         ae:ee:bb:19:5b:73:63:4a:d9:77:54:f1:72:2e:8b:40:83:4b:
         85:1b:cc:e2:74:8a:f7:b0:80:49:23:b0:03:32:02:16:2b:fc:
         b1:73:21:e2:b6:58:eb:49:6b:79:3f:d8:13:c4:b4:c6:e8:8d:
         8e:70:15:5d:bf:8d:e0:08:73:f6:66:43:81:22:20:57:37:c7:
         4d:79:1e:cf:4a:56:2c:e1:37:be:1b:51:a6:cb:f1:47:5c:a6:
         9a:7a:d4:51:63:3f:23:19:a2:4b:00:8d:0e:d9:f4:86:82:18:
         4c:61:0b:5f:75:8f:e8:56:43:6f:33:c5:ef:49:50:e1:9c:ed:
         84:20:41:7c:b3:c6:b8:a2:79:26:3f:1d:2b:08:de:fd:a4:78:
         30:98:1a:26:33:ad:ba:66:37:f5:dc:32:fb:c9:98:71:ee:b0:
         15:a6:34:e6:7d:75:dd:e9
-----BEGIN CERTIFICATE-----
MIIFqDCCA5CgAwIBAgIDEAABMA0GCSqGSIb3DQEBCwUAMIGVMRwwGgYDVQQDExNI
YW1pbGxlci1UdWJlLmxvY2FsMQswCQYDVQQGEwJVUzEWMBQGA1UECBMNTWFzc2Fj
aHVzZXR0czEQMA4GA1UEChMHWGFtYXJpbjEUMBIGA1UECxMLRW5naW5lZXJpbmcx
KDAmBgkqhkiG9w0BCQEWGW1hcnRpbi5iYXVsaWdAeGFtYXJpbi5jb20wHhcNMTUw
ODEwMDgwOTEyWhcNMjUwODA3MDgwOTEyWjBrMQswCQYDVQQGEwJVUzEWMBQGA1UE
CBMNTWFzc2FjaHVzZXR0czEQMA4GA1UEChMHWGFtYXJpbjEUMBIGA1UECxMLRW5n
aW5lZXJpbmcxHDAaBgNVBAMTE0hhbWlsbGVyLVR1YmUubG9jYWwwggIiMA0GCSqG
SIb3DQEBAQUAA4ICDwAwggIKAoICAQDHwQG0D+fdsC103Bd/IiPafWOrcZIM6k22
IvkWl9jTYHTLG+M8XZ92gz8RX2jFRXnY16zK0FjFgYcRKensExO8UrosGSK8b5Ne
1nEzUqyZbhMcuEvMmLnH3COuZlYH/XZo/f7twDQJOW42gI8I2L7MnW0UpmTupLeo
YjSbxwJtvoKgiKm+n5zAPGkdEBSsxS+PImrjAAHa7sryxpEM+BARuyqwU3I7lqRG
s0M5IlxvbTBo3BrMHYRhXQoTSNL3J0oO766qG3+pRG9ytjrm2+V8MGR5MssCDr95
HKQy13/iVgdAOzWz/iPHjcNeHQB07EGX2QIXJAEI4DTVs41WhB5jNUdgr9TQvccn
bb4ACJNd+GcNWJNgY7Jv1kAEKDIc6Ouo7ghtquIDnnZdswVLIt9CqkuqA8CpFknZ
mxui3l0bnmdVUZLT0Tv6rDf79HNtD8HyMI10vANBn4ncRSQwpnhzBeyW7FgaGlQs
jGV0HboF6Ak334GPTfahTNVnVBg4w8BREVHyd84n3DeB1TCXr87vU30D6/DclcUl
grDBzlCnhLjlvzaC//Em2lO8wpJBlT/C3kn10IDUkWeLSueMYj53sIgDB+j7Y0Ss
3dGEplIApubFsbdbm7UT7Dhmujc2tyx5pzEkysvVKUGNNWLverdsE6drwBI3US4S
PbSOW7I5uwIDAQABoyowKDAOBgNVHQ8BAf8EBAMCBaAwFgYDVR0lAQH/BAwwCgYI
KwYBBQUHAwEwDQYJKoZIhvcNAQELBQADggIBAHEbesS/+YwjaE8uXz7/W7FZdZD2
urc3Mk3tdghXkn/Y6IAys2TEScW+sqrrSOIkv/3bJDm9GA8DVA28+jYlZQNEDBP7
rJ9ZD3N5dimmW1EeC0zdGXo7dkl7SLTQgPiMQGKBVv+Oylk1Cne8hjHRhyg6XMBX
zjmelK4QhRJISrVMTkW3yTUktB1kWhEPBy/sRsYbt21b0uHEnDsWXoAWM/oCAdfC
KmpBghbRVAayRRgULapola6uboj3SzeKlICRiLzkBGEoaXcJ1K8sPzML06cFw2D0
XQjdhg06gvWz1FME6roZVEM7iIYmMcKyfgzJNoBz+SR87TTmOb2J/AX3lZTWkUz+
7yOFOV8FLahgqupgGqev+Vh+U6CDuwBSs0SmJ17WqB9YyNgyijMLnmvCuxCTjrHH
DqIMwHG/AktPF0wZM4MmVzLSBQ6Apb0fF3gOUJr4c+1jbq7uuxlbc2NK2XdU8XIu
i0CDS4UbzOJ0ivewgEkjsAMyAhYr/LFzIeK2WOtJa3k/2BPEtMbojY5wFV2/jeAI
c/ZmQ4EiIFc3x015Hs9KVizhN74bUabL8Udcppp61FFjPyMZoksAjQ7Z9IaCGExh
C191j+hWQ28zxe9JUOGc7YQgQXyzxriieSY/HSsI3v2keDCYGiYzrbpmN/XcMvvJ
mHHusBWmNOZ9dd3p
-----END CERTIFICATE-----
