Certificate:
    Data:
        Version: 3 (0x2)
        Serial Number: 1048582 (0x100006)
    Signature Algorithm: md5WithRSAEncryption
        Issuer: C=US, ST=Massachusetts, O=Xamarin, OU=Engineering, CN=Hamiller-Tube CA/emailAddress=martin.baulig@xamarin.com
        Validity
            Not Before: Aug 10 04:16:45 2015 GMT
            Not After : Aug  7 04:16:45 2025 GMT
        Subject: C=US, ST=Massachusetts, O=Xamarin, OU=Engineering, CN=Martins Monkey
        Subject Public Key Info:
            Public Key Algorithm: rsaEncryption
                Public-Key: (4096 bit)
                Modulus:
                    00:aa:3a:bb:bc:5d:bb:10:b9:cb:55:68:d0:f2:4b:
                    7f:5f:7d:a0:f9:cf:ce:b5:85:36:17:64:ca:e6:b3:
                    44:01:38:3d:55:9a:dd:8b:0c:ee:61:ca:63:37:ec:
                    a5:e6:48:1b:d9:64:11:c8:d2:c9:9b:dd:32:17:ac:
                    00:cb:41:57:05:63:b0:d5:5a:17:90:91:1a:21:3e:
                    4c:c4:46:76:73:4e:13:db:23:ef:f9:ff:4b:39:a8:
                    f3:ca:0f:19:07:05:70:af:8d:01:6e:98:28:75:c1:
                    02:0c:51:bf:e3:d5:70:5e:cc:60:c2:8b:86:0e:6e:
                    87:01:ac:69:c8:b0:4d:18:5c:aa:63:08:87:ae:6c:
                    06:c3:75:98:08:37:99:20:c6:35:19:99:f2:f1:0f:
                    a1:01:e9:af:1d:75:a2:c3:33:39:cf:41:98:7a:d3:
                    65:89:60:54:2e:93:37:c2:37:cf:d3:32:71:a5:c5:
                    05:15:d9:32:44:60:b8:1e:e0:52:ad:b1:da:ab:59:
                    fe:24:32:67:96:67:1e:0f:95:74:e2:a1:a4:28:01:
                    47:73:8f:b5:51:19:4e:a0:2c:34:b1:34:d1:b1:6d:
                    7d:c3:5b:77:c1:1a:2d:e8:10:5b:6f:5d:07:ac:cf:
                    88:bd:e3:d0:d1:8e:e7:63:8c:fe:98:15:8f:34:cf:
                    7d:d1:e1:c1:50:34:36:93:a6:23:ad:93:6c:ca:c3:
                    a3:e8:88:c1:17:cc:eb:49:0d:01:c7:b9:f5:c4:e0:
                    a0:6a:98:3d:50:4a:e0:38:82:20:f8:37:4e:65:bf:
                    2c:a6:9e:2a:6e:52:39:69:87:69:2f:fa:69:4b:39:
                    44:91:f4:a8:40:20:1a:53:14:12:65:f9:54:dc:13:
                    ef:44:c2:f2:7e:0a:f0:6e:57:3d:c5:7a:74:3a:ba:
                    06:6d:ce:8b:cb:c4:9a:70:7b:24:a2:79:33:61:4b:
                    b6:00:7d:c8:f9:70:c5:63:3b:5d:ab:58:57:a9:16:
                    88:55:3f:35:90:ec:82:d8:19:01:a7:e8:ab:dd:ad:
                    bc:54:b5:a5:7a:6b:ef:1d:07:8b:b7:30:a0:c4:0a:
                    5b:87:66:f9:87:ce:91:5f:56:af:a7:ab:05:ab:25:
                    9f:3c:32:9d:ec:e9:dd:54:64:9f:84:83:50:27:a7:
                    9f:b1:9c:d1:86:1d:5d:51:a7:d3:07:a2:74:24:29:
                    f9:1b:af:e1:6b:e4:85:af:8b:5a:5c:22:00:22:5d:
                    20:bc:ba:95:86:79:d0:37:88:9d:9a:ed:62:22:e4:
                    47:86:a0:f6:bd:24:5e:3e:d3:3a:21:c2:d1:41:6a:
                    5d:01:bc:2d:94:ce:77:5e:c7:39:57:45:04:6c:a4:
                    bc:4a:f3
                Exponent: 65537 (0x10001)
        X509v3 extensions:
            X509v3 Key Usage: critical
                Digital Signature
            X509v3 Extended Key Usage: critical
                TLS Web Client Authentication
    Signature Algorithm: md5WithRSAEncryption
         46:00:2d:8d:bd:0d:09:8b:14:15:5f:db:c6:66:4a:06:45:1e:
         57:48:5e:c3:07:15:4e:bc:b3:b1:16:64:52:b7:af:a0:c5:04:
         c7:d3:66:b6:b8:2f:01:f0:64:91:4f:14:b6:18:0d:fb:37:e5:
         88:8d:91:73:85:26:2c:1e:05:8b:ec:22:2c:56:16:4a:23:93:
         eb:b0:18:1a:26:d7:3c:5b:24:b7:b3:a4:9b:30:98:a7:b6:46:
         4b:8b:bc:83:a4:c4:8d:63:e7:ca:8b:dd:53:27:53:da:39:ca:
         60:12:a5:23:18:80:db:6d:7f:0d:1f:2e:f9:00:3a:ef:7b:27:
         ae:5a:5c:90:28:00:e9:79:80:da:2c:0e:cb:c6:e0:8c:ca:dc:
         5b:80:ba:6f:e2:fe:cb:da:88:7d:ea:25:d5:52:93:f8:05:73:
         1f:c7:8a:77:01:58:3e:a5:12:2f:e5:44:ae:0c:89:f4:52:ae:
         24:c4:de:ee:1a:c8:f1:1c:37:a3:cd:e8:c1:c1:22:b9:3d:92:
         08:92:a8:e2:c7:9f:d0:17:b9:3f:5b:85:4a:d8:16:04:6c:39:
         e5:b6:e2:6e:db:bb:8a:b3:11:85:24:13:a1:f8:9d:14:31:b6:
         c2:74:62:6d:21:a0:8d:a9:8f:6d:64:a7:e7:06:b9:d4:cf:af:
         6b:0e:c6:53:3a:0e:75:3f:72:42:18:22:ae:00:15:ee:d2:f6:
         17:d5:44:94:9b:86:87:57:c9:c2:01:8a:11:ef:b5:3e:2b:be:
         e0:27:88:b4:ac:98:fb:c5:7c:d5:ed:63:44:fe:6e:63:73:e6:
         5a:8f:0c:02:56:96:ed:ff:a0:4e:a5:3b:da:0f:95:4b:18:0a:
         d3:fb:8b:58:79:be:08:c0:cc:e7:36:05:a8:63:b5:b9:c8:28:
         8c:85:61:cd:4d:a0:66:43:a6:43:71:95:82:20:ff:38:1d:79:
         0c:d8:24:b5:fd:b1:1a:cb:13:da:26:d7:fb:c5:80:c3:a4:d6:
         ac:9d:96:c2:c0:54:14:62:2b:05:84:27:53:d3:a8:b6:08:54:
         94:9e:99:29:72:fb:42:3c:91:98:d8:22:1e:9b:ca:7a:d6:43:
         d6:7e:b6:8f:84:e5:d0:e3:00:37:db:5c:42:92:73:3c:c4:bc:
         cf:2c:b0:9f:e6:b5:b3:5a:ad:36:74:fa:76:b3:5d:11:d1:13:
         bf:d5:75:00:3c:68:ac:4c:f3:d5:fa:f8:49:f5:73:29:a7:46:
         83:1b:15:77:d7:d8:14:65:e4:9b:db:07:7d:7c:4c:07:8b:10:
         83:db:89:7a:a6:ad:9c:8b:60:6a:1e:95:86:23:ef:f9:de:23:
         7c:7b:0b:82:3a:af:85:d2
-----BEGIN CERTIFICATE-----
MIIFoDCCA4igAwIBAgIDEAAGMA0GCSqGSIb3DQEBBAUAMIGSMQswCQYDVQQGEwJV
UzEWMBQGA1UECBMNTWFzc2FjaHVzZXR0czEQMA4GA1UEChMHWGFtYXJpbjEUMBIG
A1UECxMLRW5naW5lZXJpbmcxGTAXBgNVBAMTEEhhbWlsbGVyLVR1YmUgQ0ExKDAm
BgkqhkiG9w0BCQEWGW1hcnRpbi5iYXVsaWdAeGFtYXJpbi5jb20wHhcNMTUwODEw
MDQxNjQ1WhcNMjUwODA3MDQxNjQ1WjBmMQswCQYDVQQGEwJVUzEWMBQGA1UECBMN
TWFzc2FjaHVzZXR0czEQMA4GA1UEChMHWGFtYXJpbjEUMBIGA1UECxMLRW5naW5l
ZXJpbmcxFzAVBgNVBAMTDk1hcnRpbnMgTW9ua2V5MIICIjANBgkqhkiG9w0BAQEF
AAOCAg8AMIICCgKCAgEAqjq7vF27ELnLVWjQ8kt/X32g+c/OtYU2F2TK5rNEATg9
VZrdiwzuYcpjN+yl5kgb2WQRyNLJm90yF6wAy0FXBWOw1VoXkJEaIT5MxEZ2c04T
2yPv+f9LOajzyg8ZBwVwr40BbpgodcECDFG/49VwXsxgwouGDm6HAaxpyLBNGFyq
YwiHrmwGw3WYCDeZIMY1GZny8Q+hAemvHXWiwzM5z0GYetNliWBULpM3wjfP0zJx
pcUFFdkyRGC4HuBSrbHaq1n+JDJnlmceD5V04qGkKAFHc4+1URlOoCw0sTTRsW19
w1t3wRot6BBbb10HrM+IvePQ0Y7nY4z+mBWPNM990eHBUDQ2k6YjrZNsysOj6IjB
F8zrSQ0Bx7n1xOCgapg9UErgOIIg+DdOZb8spp4qblI5aYdpL/ppSzlEkfSoQCAa
UxQSZflU3BPvRMLyfgrwblc9xXp0OroGbc6Ly8SacHskonkzYUu2AH3I+XDFYztd
q1hXqRaIVT81kOyC2BkBp+ir3a28VLWlemvvHQeLtzCgxApbh2b5h86RX1avp6sF
qyWfPDKd7OndVGSfhINQJ6efsZzRhh1dUafTB6J0JCn5G6/ha+SFr4taXCIAIl0g
vLqVhnnQN4idmu1iIuRHhqD2vSRePtM6IcLRQWpdAbwtlM53Xsc5V0UEbKS8SvMC
AwEAAaMqMCgwDgYDVR0PAQH/BAQDAgeAMBYGA1UdJQEB/wQMMAoGCCsGAQUFBwMC
MA0GCSqGSIb3DQEBBAUAA4ICAQBGAC2NvQ0JixQVX9vGZkoGRR5XSF7DBxVOvLOx
FmRSt6+gxQTH02a2uC8B8GSRTxS2GA37N+WIjZFzhSYsHgWL7CIsVhZKI5PrsBga
Jtc8WyS3s6SbMJintkZLi7yDpMSNY+fKi91TJ1PaOcpgEqUjGIDbbX8NHy75ADrv
eyeuWlyQKADpeYDaLA7LxuCMytxbgLpv4v7L2oh96iXVUpP4BXMfx4p3AVg+pRIv
5USuDIn0Uq4kxN7uGsjxHDejzejBwSK5PZIIkqjix5/QF7k/W4VK2BYEbDnltuJu
27uKsxGFJBOh+J0UMbbCdGJtIaCNqY9tZKfnBrnUz69rDsZTOg51P3JCGCKuABXu
0vYX1USUm4aHV8nCAYoR77U+K77gJ4i0rJj7xXzV7WNE/m5jc+ZajwwCVpbt/6BO
pTvaD5VLGArT+4tYeb4IwMznNgWoY7W5yCiMhWHNTaBmQ6ZDcZWCIP84HXkM2CS1
/bEayxPaJtf7xYDDpNasnZbCwFQUYisFhCdT06i2CFSUnpkpcvtCPJGY2CIem8p6
1kPWfraPhOXQ4wA321xCknM8xLzPLLCf5rWzWq02dPp2s10R0RO/1XUAPGisTPPV
+vhJ9XMpp0aDGxV319gUZeSb2wd9fEwHixCD24l6pq2ci2BqHpWGI+/53iN8ewuC
Oq+F0g==
-----END CERTIFICATE-----
