Certificate:
    Data:
        Version: 3 (0x2)
        Serial Number: 1048579 (0x100003)
        Signature Algorithm: sha256WithRSAEncryption
        Issuer: CN=Hamiller-Tube.local, C=US, ST=Massachusetts, O=Xamarin, OU=Engineering/emailAddress=martin.baulig@xamarin.com
        Validity
            Not Before: Mar 24 22:36:28 2016 GMT
            Not After : Mar 22 22:36:28 2026 GMT
        Subject: C=US, ST=Massachusetts, O=Xamarin, OU=Engineering, CN=Intermediate Test CA
        Subject Public Key Info:
            Public Key Algorithm: rsaEncryption
            RSA Public Key: (4096 bit)
                Modulus (4096 bit):
                    00:ca:be:37:8b:6b:27:de:2f:0a:60:cc:57:82:eb:
                    db:81:9c:45:63:ea:fd:55:32:c0:7e:b4:4e:53:e4:
                    c4:6d:8f:27:a6:eb:f6:77:34:33:06:82:a4:e0:0a:
                    35:78:e9:f7:50:1f:d5:64:ab:ac:3b:b1:39:1b:3c:
                    e4:d6:f0:f3:92:c0:d5:62:09:b4:b2:73:ef:b1:60:
                    47:01:e8:6c:81:04:df:d0:9b:cd:56:47:3e:27:6d:
                    5f:ed:9a:14:84:db:97:eb:8b:ab:70:18:fd:29:96:
                    44:b6:56:52:c7:7f:4e:b5:5b:a1:96:77:33:93:ae:
                    a5:f6:9e:c4:6e:67:ba:a4:64:f8:11:60:5c:9f:5e:
                    4a:5c:45:9c:6f:a8:38:de:a5:b6:81:f3:d5:09:bb:
                    7d:0e:37:0f:34:17:45:02:c1:8b:55:81:83:0c:e1:
                    c9:d7:2f:b1:39:d3:28:24:a8:9b:fb:f3:f3:f1:67:
                    d3:40:af:ff:5d:b8:13:8d:70:63:0f:25:aa:72:ad:
                    e3:b7:32:0d:f6:48:17:ab:4d:be:89:2b:55:f7:55:
                    ce:9e:76:2f:7a:d9:49:fc:19:20:43:3b:cd:ea:2b:
                    32:33:b3:3d:de:43:f4:40:ad:2c:3f:18:f4:3b:51:
                    64:64:7a:61:5b:61:62:7d:fb:93:25:89:a5:fd:c5:
                    8b:62:9a:18:37:ce:6c:f7:37:cf:fa:18:34:aa:29:
                    03:86:60:82:e6:c6:ac:35:dc:1c:85:d3:d7:d1:cf:
                    52:55:6c:f1:e0:84:ee:b4:8e:58:7a:96:07:05:60:
                    f5:ac:92:9e:1d:bf:27:94:74:7a:de:be:88:9c:90:
                    8a:b1:49:74:f2:4b:c7:21:ff:09:fe:3f:29:42:94:
                    8c:6c:4d:1e:9f:c9:f8:c4:70:2d:52:f3:31:52:5c:
                    5e:c3:ce:d7:47:22:2f:9b:23:0a:e3:c4:81:cc:fa:
                    ad:65:02:0a:be:d0:d3:c0:61:52:47:50:9f:b3:8a:
                    c4:43:2c:50:e6:81:68:69:ce:0c:d9:fc:59:74:e0:
                    3e:f0:da:5c:8b:bb:f4:64:f3:de:b2:e5:ee:d6:7e:
                    1d:2c:53:4d:ce:df:2a:db:a2:87:c3:c7:eb:23:c6:
                    f7:23:49:2a:d4:b1:12:0b:16:25:e0:14:a6:4e:ca:
                    27:a9:01:36:71:88:20:3a:1c:39:24:86:3a:d6:56:
                    99:c0:40:67:a7:d5:3b:e2:2a:a4:c4:8e:a8:79:dd:
                    30:23:0f:27:4e:19:3a:ab:ef:74:79:3d:7f:fb:31:
                    9c:2f:1a:2a:22:30:19:9f:f3:5c:f1:18:64:3a:14:
                    9b:3f:22:cf:c7:aa:0b:bd:39:a2:a7:64:b8:94:14:
                    2a:37:c5
                Exponent: 65537 (0x10001)
        X509v3 extensions:
            X509v3 Basic Constraints: critical
                CA:TRUE, pathlen:0
            X509v3 Key Usage: 
                Certificate Sign
    Signature Algorithm: sha256WithRSAEncryption
        06:aa:27:c1:7e:e3:fd:5c:b8:b1:80:04:11:23:87:c7:3a:46:
        86:4f:d3:4a:6d:34:ec:67:43:e8:10:0e:68:d6:cf:73:fb:f4:
        66:0c:df:ed:4c:ce:2c:04:92:d2:7a:bd:da:c9:13:fb:e3:9d:
        8b:07:a3:6f:c1:ee:f6:4c:1a:fb:b1:ab:91:f2:c1:d2:87:1e:
        84:75:0b:62:31:57:b1:1c:9c:1c:0e:97:a4:12:0d:2f:88:78:
        d2:50:1e:fd:1e:b8:b4:08:08:b3:a8:01:3b:60:db:3d:fc:6b:
        29:3c:9d:d9:b6:9f:34:4c:f3:4f:57:00:b6:ff:ba:d5:76:80:
        c8:a8:46:44:4d:15:12:d2:5c:0b:68:36:8b:d4:d7:8d:16:b0:
        62:ad:f9:94:96:3b:df:18:0b:aa:b4:ab:8d:63:e0:a4:2c:61:
        f7:b3:01:58:a1:93:96:60:99:08:34:32:65:9d:33:b3:a4:d8:
        63:ca:b6:83:1a:55:2d:9a:4d:91:1e:29:1c:06:6d:b5:67:2d:
        8f:4c:33:fc:bf:57:6c:65:7a:24:3e:d9:57:d4:7f:70:82:7a:
        32:68:dd:85:5d:13:6c:ca:80:7a:10:63:50:d6:86:f1:c6:e1:
        d6:fc:93:73:12:74:a7:e2:81:c7:e2:d2:68:3e:bd:e8:64:43:
        f9:e2:9d:29:5b:b8:56:4a:09:45:c2:4e:c3:5b:fd:49:9f:d8:
        9a:f7:7f:45:f1:9f:8f:2f:11:68:7d:7b:ef:86:2a:2b:19:fe:
        92:e0:88:55:93:4c:c9:f7:10:f1:b0:5e:fd:f6:3d:2a:25:ce:
        86:7c:f3:ff:31:0b:d6:c2:42:35:1c:74:59:41:ea:a0:50:f4:
        be:c7:74:5a:cd:a2:7b:2a:bd:e3:89:93:d2:7a:32:b9:56:3f:
        31:a2:2d:a3:54:7c:f3:18:df:91:5c:ab:9a:bb:0d:9e:9a:a2:
        0a:63:5e:e2:02:60:69:65:d5:21:e5:ae:76:fc:b3:41:67:d4:
        f2:f9:85:a7:cd:8a:29:3b:82:11:ec:54:8b:23:a7:0a:64:b1:
        9d:ed:59:26:a2:d0:7e:d2:a5:04:d1:a4:c1:5e:f0:b4:db:1b:
        2d:cb:fa:97:64:2b:ab:5f:8e:ee:16:e1:7a:25:fd:10:e6:c2:
        76:ca:89:fc:06:ee:2a:1d:87:f9:06:53:cb:78:96:32:a7:96:
        fb:2d:b0:0b:ca:53:c8:96:50:0d:5d:19:5e:0d:f5:53:d0:96:
        fc:be:eb:75:99:5c:6a:d6:58:8a:65:9f:26:6d:3b:7f:d5:1a:
        79:98:86:5a:bf:d5:71:b0:07:a8:5f:8f:63:2d:14:5a:b8:30:
        d8:a3:db:57:95:37:5a:fd
-----BEGIN CERTIFICATE-----
MIIFojCCA4qgAwIBAgIDEAADMA0GCSqGSIb3DQEBCwUAMIGVMRwwGgYDVQQDExNI
YW1pbGxlci1UdWJlLmxvY2FsMQswCQYDVQQGEwJVUzEWMBQGA1UECBMNTWFzc2Fj
aHVzZXR0czEQMA4GA1UEChMHWGFtYXJpbjEUMBIGA1UECxMLRW5naW5lZXJpbmcx
KDAmBgkqhkiG9w0BCQEWGW1hcnRpbi5iYXVsaWdAeGFtYXJpbi5jb20wHhcNMTYw
MzI0MjIzNjI4WhcNMjYwMzIyMjIzNjI4WjBsMQswCQYDVQQGEwJVUzEWMBQGA1UE
CBMNTWFzc2FjaHVzZXR0czEQMA4GA1UEChMHWGFtYXJpbjEUMBIGA1UECxMLRW5n
aW5lZXJpbmcxHTAbBgNVBAMTFEludGVybWVkaWF0ZSBUZXN0IENBMIICIjANBgkq
hkiG9w0BAQEFAAOCAg8AMIICCgKCAgEAyr43i2sn3i8KYMxXguvbgZxFY+r9VTLA
frROU+TEbY8npuv2dzQzBoKk4Ao1eOn3UB/VZKusO7E5Gzzk1vDzksDVYgm0snPv
sWBHAehsgQTf0JvNVkc+J21f7ZoUhNuX64urcBj9KZZEtlZSx39OtVuhlnczk66l
9p7Ebme6pGT4EWBcn15KXEWcb6g43qW2gfPVCbt9DjcPNBdFAsGLVYGDDOHJ1y+x
OdMoJKib+/Pz8WfTQK//XbgTjXBjDyWqcq3jtzIN9kgXq02+iStV91XOnnYvetlJ
/BkgQzvN6isyM7M93kP0QK0sPxj0O1FkZHphW2FiffuTJYml/cWLYpoYN85s9zfP
+hg0qikDhmCC5sasNdwchdPX0c9SVWzx4ITutI5YepYHBWD1rJKeHb8nlHR63r6I
nJCKsUl08kvHIf8J/j8pQpSMbE0en8n4xHAtUvMxUlxew87XRyIvmyMK48SBzPqt
ZQIKvtDTwGFSR1Cfs4rEQyxQ5oFoac4M2fxZdOA+8Npci7v0ZPPesuXu1n4dLFNN
zt8q26KHw8frI8b3I0kq1LESCxYl4BSmTsonqQE2cYggOhw5JIY61laZwEBnp9U7
4iqkxI6oed0wIw8nThk6q+90eT1/+zGcLxoqIjAZn/Nc8RhkOhSbPyLPx6oLvTmi
p2S4lBQqN8UCAwEAAaMjMCEwEgYDVR0TAQH/BAgwBgEB/wIBADALBgNVHQ8EBAMC
AgQwDQYJKoZIhvcNAQELBQADggIBAAaqJ8F+4/1cuLGABBEjh8c6RoZP00ptNOxn
Q+gQDmjWz3P79GYM3+1MziwEktJ6vdrJE/vjnYsHo2/B7vZMGvuxq5HywdKHHoR1
C2IxV7EcnBwOl6QSDS+IeNJQHv0euLQICLOoATtg2z38ayk8ndm2nzRM809XALb/
utV2gMioRkRNFRLSXAtoNovU140WsGKt+ZSWO98YC6q0q41j4KQsYfezAVihk5Zg
mQg0MmWdM7Ok2GPKtoMaVS2aTZEeKRwGbbVnLY9MM/y/V2xleiQ+2VfUf3CCejJo
3YVdE2zKgHoQY1DWhvHG4db8k3MSdKfigcfi0mg+vehkQ/ninSlbuFZKCUXCTsNb
/Umf2Jr3f0Xxn48vEWh9e++GKisZ/pLgiFWTTMn3EPGwXv32PSolzoZ88/8xC9bC
QjUcdFlB6qBQ9L7HdFrNonsqveOJk9J6MrlWPzGiLaNUfPMY35Fcq5q7DZ6aogpj
XuICYGll1SHlrnb8s0Fn1PL5hafNiik7ghHsVIsjpwpksZ3tWSai0H7SpQTRpMFe
8LTbGy3L+pdkK6tfju4W4Xol/RDmwnbKifwG7iodh/kGU8t4ljKnlvstsAvKU8iW
UA1dGV4N9VPQlvy+63WZXGrWWIplnyZtO3/VGnmYhlq/1XGwB6hfj2MtFFq4MNij
21eVN1r9
-----END CERTIFICATE-----
