Certificate:
    Data:
        Version: 3 (0x2)
        Serial Number: 1048582 (0x100006)
        Signature Algorithm: sha256WithRSAEncryption
        Issuer: C=US, ST=Massachusetts, O=Xamarin, OU=Engineering, CN=Hamiller Tube Intermediate CA
        Validity
            Not Before: Jun 20 03:40:24 2016 GMT
            Not After : Jun 18 03:40:24 2026 GMT
        Subject: C=US, ST=Massachusetts, O=Xamarin, OU=Server Certificate using Intermediate CA, CN=Hamiller-Tube.local
        Subject Public Key Info:
            Public Key Algorithm: rsaEncryption
            RSA Public Key: (4096 bit)
                Modulus (4096 bit):
                    00:f2:6d:d5:d5:a3:25:e9:90:76:3d:d7:9c:9e:d3:
                    af:c8:4e:27:e4:2c:a5:cd:1f:fe:51:07:93:ee:bf:
                    83:1c:da:09:84:69:cc:81:08:53:ed:2d:fe:de:20:
                    5e:96:cb:43:c1:84:1c:3e:82:e9:88:20:08:22:31:
                    90:31:d2:cb:30:05:ac:21:31:f7:94:33:dc:62:eb:
                    ba:e9:8c:8d:7b:d6:d0:db:34:26:fd:56:2e:f2:4f:
                    b1:4a:45:2b:0b:22:ef:e2:03:bd:3c:7f:a1:55:22:
                    67:3c:d6:d1:ce:43:04:6f:2f:1a:a8:fa:74:ad:7b:
                    7b:85:dd:e9:61:8b:fc:a4:59:04:7e:6e:62:2f:b6:
                    6e:57:7a:77:fc:e8:90:75:82:e8:52:0c:8f:a8:45:
                    5a:b2:ee:92:87:99:f5:97:5f:c5:c8:1c:c0:6e:de:
                    10:9f:b4:8b:be:78:01:6b:74:bf:6f:28:2f:a5:85:
                    ad:d1:f8:68:b1:3f:17:51:3e:c6:92:3c:4a:d3:0c:
                    8e:be:fb:73:cd:df:49:75:a6:e6:1f:a6:47:28:74:
                    fd:95:f1:15:b0:32:b1:be:8f:9b:89:70:c7:27:8f:
                    84:e3:4f:8f:b2:f1:de:43:25:d5:bf:4e:18:54:56:
                    69:85:4e:6e:80:24:31:07:df:78:b8:ec:0b:60:f8:
                    04:fa:6b:1d:16:fb:52:c6:8d:14:11:10:81:9e:39:
                    97:4e:a6:6f:4c:d3:f0:a4:53:2f:83:c6:78:95:6a:
                    99:39:80:f4:cd:ad:63:13:25:d7:50:c3:1d:5e:02:
                    00:33:a7:57:09:b3:af:90:2e:19:bd:58:b2:1c:30:
                    3f:59:79:7b:66:db:cd:93:45:65:25:a3:3d:6a:61:
                    a8:75:42:b6:b3:e0:89:e6:39:1c:0b:9e:02:da:ee:
                    be:f2:ba:d4:2f:71:4a:85:21:10:c6:67:e4:92:bf:
                    68:48:85:91:14:29:cb:c9:f3:04:58:fb:a0:31:8f:
                    4f:3c:d3:a5:b6:88:67:72:dd:eb:0d:3f:9c:d6:7f:
                    3b:c8:01:12:74:ac:68:76:13:87:00:fc:7c:6e:12:
                    65:bf:fd:63:bb:f2:13:c7:31:97:34:d6:56:f5:20:
                    42:a0:2f:6a:ff:97:71:8e:3a:4d:f6:f8:b6:6c:4b:
                    e0:aa:21:b2:25:49:1e:3d:52:2c:31:92:c6:1b:a2:
                    f3:8e:2f:f0:c6:9f:95:7c:51:f8:18:81:bd:08:9e:
                    57:c0:2b:f4:dc:ef:8b:cb:c7:69:d1:fb:77:4a:bf:
                    62:9e:3b:5f:6f:73:e4:70:e9:90:07:3d:ab:04:b0:
                    51:ea:c5:fb:11:5c:c3:97:84:ad:23:71:e7:51:9a:
                    33:3d:ab
                Exponent: 65537 (0x10001)
        X509v3 extensions:
            X509v3 Key Usage: critical
                Digital Signature, Key Encipherment
            X509v3 Extended Key Usage: critical
                TLS Web Server Authentication
    Signature Algorithm: sha256WithRSAEncryption
        7d:55:d8:53:2a:59:c7:8d:25:e0:e9:76:56:50:31:b8:a6:fe:
        ac:a2:b2:24:cb:db:ec:b4:0c:15:05:0f:63:a4:b3:e1:06:21:
        d3:e3:55:15:0d:22:8e:56:93:a3:9a:bc:e8:c5:73:1c:97:48:
        4d:b6:22:e2:17:7c:d1:88:73:86:74:a9:c5:61:31:b2:86:e9:
        fe:d2:e9:ed:6f:dc:a7:3f:19:43:80:e8:c4:0f:f2:15:8e:70:
        42:1e:e9:e4:1d:26:5e:ea:f4:2e:77:8c:87:19:fe:0e:01:e1:
        91:31:cb:bd:4b:45:a2:c6:95:bd:75:cf:f0:27:f0:ce:00:b7:
        93:be:5d:17:88:2d:20:b8:67:74:4f:af:26:a5:84:39:34:c6:
        65:12:0b:96:38:bd:ee:95:0e:12:10:42:6a:49:dd:5e:2e:95:
        fd:84:b6:a5:69:8b:bf:eb:08:52:dc:c8:f2:83:b5:0f:de:9a:
        90:19:8e:92:67:d2:72:35:5e:f5:11:30:6b:00:aa:64:ef:d1:
        0c:5d:bc:4d:85:74:c2:5c:4f:d0:ed:a1:04:32:92:c0:cd:e8:
        64:e1:f7:67:00:49:c7:09:22:11:6b:14:be:0a:b8:5a:94:80:
        8c:df:79:4f:33:7b:a2:28:c1:2f:02:1c:4c:0c:2b:2e:f8:d4:
        66:7e:48:8c:de:1e:c5:03:ad:99:94:e8:70:db:3a:86:27:09:
        9d:e0:3e:42:63:c1:24:e8:8f:76:21:09:3e:b2:74:2e:8c:8a:
        af:46:a7:71:9e:c9:3b:95:9b:07:97:30:84:e4:c2:d6:9f:eb:
        4d:8d:fa:a3:b4:ee:57:71:03:66:2d:dd:08:f2:18:35:9a:c1:
        7b:55:5b:43:01:28:c5:f5:b0:8d:09:b1:0a:09:bc:96:98:d7:
        15:fb:7a:1d:ee:99:ad:52:34:59:07:2f:4e:f0:f3:d9:62:d6:
        03:76:7b:ea:29:5c:15:b9:75:9b:60:43:d0:e2:4a:bc:62:f6:
        9c:e6:6f:49:72:4b:f8:66:97:36:fd:fa:e3:e6:27:ac:fc:7b:
        ca:d8:a4:6a:bb:6c:66:7c:76:90:9f:8f:6c:9e:db:c7:86:cb:
        c4:50:fa:c4:e5:7b:0b:84:84:c1:2b:3c:c1:da:3e:e5:be:d5:
        31:d0:59:fa:f2:ac:30:a6:fe:14:4a:5d:52:4f:06:5e:06:29:
        7b:f5:4b:ec:00:c3:99:82:32:a3:63:32:e0:f9:e0:2e:d2:a1:
        48:9f:21:da:1d:12:21:ed:72:3f:66:7c:95:30:73:83:2b:46:
        ed:30:3f:fa:bc:79:9e:2f:17:a7:aa:2d:98:ba:e3:5c:e3:08:
        ad:6f:0d:0b:3a:0c:d1:32
-----BEGIN CERTIFICATE-----
MIIFpTCCA42gAwIBAgIDEAAGMA0GCSqGSIb3DQEBCwUAMHUxCzAJBgNVBAYTAlVT
MRYwFAYDVQQIEw1NYXNzYWNodXNldHRzMRAwDgYDVQQKEwdYYW1hcmluMRQwEgYD
VQQLEwtFbmdpbmVlcmluZzEmMCQGA1UEAxMdSGFtaWxsZXIgVHViZSBJbnRlcm1l
ZGlhdGUgQ0EwHhcNMTYwNjIwMDM0MDI0WhcNMjYwNjE4MDM0MDI0WjCBiDELMAkG
A1UEBhMCVVMxFjAUBgNVBAgTDU1hc3NhY2h1c2V0dHMxEDAOBgNVBAoTB1hhbWFy
aW4xMTAvBgNVBAsTKFNlcnZlciBDZXJ0aWZpY2F0ZSB1c2luZyBJbnRlcm1lZGlh
dGUgQ0ExHDAaBgNVBAMTE0hhbWlsbGVyLVR1YmUubG9jYWwwggIiMA0GCSqGSIb3
DQEBAQUAA4ICDwAwggIKAoICAQDybdXVoyXpkHY915ye06/ITifkLKXNH/5RB5Pu
v4Mc2gmEacyBCFPtLf7eIF6Wy0PBhBw+gumIIAgiMZAx0sswBawhMfeUM9xi67rp
jI171tDbNCb9Vi7yT7FKRSsLIu/iA708f6FVImc81tHOQwRvLxqo+nSte3uF3elh
i/ykWQR+bmIvtm5Xenf86JB1guhSDI+oRVqy7pKHmfWXX8XIHMBu3hCftIu+eAFr
dL9vKC+lha3R+GixPxdRPsaSPErTDI6++3PN30l1puYfpkcodP2V8RWwMrG+j5uJ
cMcnj4TjT4+y8d5DJdW/ThhUVmmFTm6AJDEH33i47Atg+AT6ax0W+1LGjRQREIGe
OZdOpm9M0/CkUy+DxniVapk5gPTNrWMTJddQwx1eAgAzp1cJs6+QLhm9WLIcMD9Z
eXtm282TRWUloz1qYah1Qraz4InmORwLngLa7r7yutQvcUqFIRDGZ+SSv2hIhZEU
KcvJ8wRY+6Axj08806W2iGdy3esNP5zWfzvIARJ0rGh2E4cA/HxuEmW//WO78hPH
MZc01lb1IEKgL2r/l3GOOk32+LZsS+CqIbIlSR49UiwxksYbovOOL/DGn5V8UfgY
gb0InlfAK/Tc74vLx2nR+3dKv2KeO19vc+Rw6ZAHPasEsFHqxfsRXMOXhK0jcedR
mjM9qwIDAQABoyowKDAOBgNVHQ8BAf8EBAMCBaAwFgYDVR0lAQH/BAwwCgYIKwYB
BQUHAwEwDQYJKoZIhvcNAQELBQADggIBAH1V2FMqWceNJeDpdlZQMbim/qyisiTL
2+y0DBUFD2Oks+EGIdPjVRUNIo5Wk6OavOjFcxyXSE22IuIXfNGIc4Z0qcVhMbKG
6f7S6e1v3Kc/GUOA6MQP8hWOcEIe6eQdJl7q9C53jIcZ/g4B4ZExy71LRaLGlb11
z/An8M4At5O+XReILSC4Z3RPryalhDk0xmUSC5Y4ve6VDhIQQmpJ3V4ulf2EtqVp
i7/rCFLcyPKDtQ/empAZjpJn0nI1XvURMGsAqmTv0QxdvE2FdMJcT9DtoQQyksDN
6GTh92cASccJIhFrFL4KuFqUgIzfeU8ze6IowS8CHEwMKy741GZ+SIzeHsUDrZmU
6HDbOoYnCZ3gPkJjwSToj3YhCT6ydC6Miq9Gp3GeyTuVmweXMITkwtaf602N+qO0
7ldxA2Yt3QjyGDWawXtVW0MBKMX1sI0JsQoJvJaY1xX7eh3uma1SNFkHL07w89li
1gN2e+opXBW5dZtgQ9DiSrxi9pzmb0lyS/hmlzb9+uPmJ6z8e8rYpGq7bGZ8dpCf
j2ye28eGy8RQ+sTlewuEhMErPMHaPuW+1THQWfryrDCm/hRKXVJPBl4GKXv1S+wA
w5mCMqNjMuD54C7SoUifIdodEiHtcj9mfJUwc4MrRu0wP/q8eZ4vF6eqLZi641zj
CK1vDQs6DNEy
-----END CERTIFICATE-----
