Certificate:
    Data:
        Version: 3 (0x2)
        Serial Number: 1048577 (0x100001)
    Signature Algorithm: md5WithRSAEncryption
        Issuer: CN=Hamiller-Tube.local, C=US, ST=Massachusetts, O=Xamarin, OU=Engineering/emailAddress=martin.baulig@xamarin.com
        Validity
            Not Before: Aug 10 05:22:30 2015 GMT
            Not After : Aug  9 05:22:30 2016 GMT
        Subject: C=US, ST=Massachusetts, O=Xamarin, OU=Engineering, CN=Hamiller-Tube.local
        Subject Public Key Info:
            Public Key Algorithm: rsaEncryption
                Public-Key: (4096 bit)
                Modulus:
                    00:a1:a6:4d:2e:38:6c:89:99:4d:76:d3:69:b8:f1:
                    84:74:cc:69:35:3d:cf:c7:36:06:d2:e3:fa:79:d6:
                    17:fe:82:51:85:2d:93:72:c4:93:7e:f5:c2:51:c8:
                    53:38:07:d1:fa:76:b5:b9:1d:53:7f:35:0e:b3:bd:
                    03:17:af:7a:cd:85:cc:14:5b:06:38:9c:43:fe:3e:
                    5f:81:4c:1d:96:93:80:65:78:78:c5:e2:7a:8b:e7:
                    78:6e:37:90:f1:ae:b4:21:14:64:f3:ef:25:77:c5:
                    5c:d3:f0:5c:34:21:a6:07:58:e0:fe:da:e0:19:52:
                    16:74:de:74:69:48:05:16:a7:5f:c2:28:32:90:e0:
                    f7:15:bb:a5:0a:8a:cd:c5:e1:91:2c:9a:74:6b:dc:
                    dd:99:43:86:9c:45:c3:ff:6c:8f:9b:17:c1:f2:8b:
                    a2:ba:b7:68:5a:c5:fc:1c:fe:9a:4a:d4:9a:ab:6e:
                    0a:9f:2e:84:cf:2f:e2:30:0e:7a:95:1d:89:2e:3e:
                    f5:b4:f6:15:d3:4a:24:45:90:a6:8d:bf:78:d6:50:
                    0c:a3:2b:e5:b5:a1:2b:b7:63:43:cb:a2:6f:cf:79:
                    ee:4c:55:14:e7:02:ee:0c:d8:88:4d:85:d9:7a:a0:
                    2c:7a:f7:d1:c9:f3:58:eb:62:91:60:80:37:04:b3:
                    c2:74:9b:5e:78:a9:b7:ee:69:49:e8:0d:78:2a:d1:
                    0f:85:04:e2:b7:1e:cb:f9:30:da:d4:57:35:df:e2:
                    87:cb:c2:2b:de:fe:0c:c9:c2:d7:90:06:4b:42:55:
                    6e:31:79:e1:56:a8:cf:2d:ae:93:a0:ce:18:93:01:
                    06:0e:cf:81:94:6b:d8:98:8a:83:f2:c5:5d:2c:da:
                    97:60:16:42:40:be:35:75:f6:da:68:ae:c9:07:0a:
                    a4:b7:5c:80:3f:c3:96:ef:f8:d1:e6:2f:ed:d8:9e:
                    12:ac:c8:91:4b:60:d5:2d:3e:5d:cd:a8:ed:4b:87:
                    2c:53:6d:81:9a:fc:91:2a:fc:17:e9:51:3d:25:07:
                    af:88:13:dc:41:3d:d8:9e:af:68:64:a4:da:02:7c:
                    10:0c:ab:12:c7:c0:2d:ee:99:d0:9b:9b:30:75:88:
                    6d:a2:10:81:b9:06:cd:cf:10:f1:2e:61:86:19:65:
                    3b:a7:8f:2b:ba:56:1a:27:87:5a:30:77:15:ac:b0:
                    df:c0:15:c0:1c:4d:71:70:c7:27:eb:aa:94:95:dc:
                    65:15:12:24:0c:03:a3:4b:26:31:83:5c:65:6a:14:
                    32:c8:90:db:a3:05:b7:8c:cc:35:28:c9:f1:88:42:
                    3a:a8:75:aa:ff:7b:18:55:11:3e:d6:71:74:2c:9d:
                    de:c1:ef
                Exponent: 65537 (0x10001)
        X509v3 extensions:
            X509v3 Key Usage: critical
                Digital Signature, Key Encipherment
            X509v3 Extended Key Usage: critical
                TLS Web Server Authentication
    Signature Algorithm: md5WithRSAEncryption
         03:af:c4:b0:68:ca:e0:88:d8:1e:98:28:45:cc:84:78:31:25:
         05:2e:53:2e:10:23:e2:51:c0:d7:6c:c5:7d:9e:ea:2b:56:a2:
         c0:68:49:30:9c:d2:0b:8a:ee:d2:b0:94:6c:45:ce:00:c4:77:
         68:44:b6:3a:c4:46:56:d3:52:94
-----BEGIN CERTIFICATE-----
MIID5jCCA5CgAwIBAgIDEAABMA0GCSqGSIb3DQEBBAUAMIGVMRwwGgYDVQQDExNI
YW1pbGxlci1UdWJlLmxvY2FsMQswCQYDVQQGEwJVUzEWMBQGA1UECBMNTWFzc2Fj
aHVzZXR0czEQMA4GA1UEChMHWGFtYXJpbjEUMBIGA1UECxMLRW5naW5lZXJpbmcx
KDAmBgkqhkiG9w0BCQEWGW1hcnRpbi5iYXVsaWdAeGFtYXJpbi5jb20wHhcNMTUw
ODEwMDUyMjMwWhcNMTYwODA5MDUyMjMwWjBrMQswCQYDVQQGEwJVUzEWMBQGA1UE
CBMNTWFzc2FjaHVzZXR0czEQMA4GA1UEChMHWGFtYXJpbjEUMBIGA1UECxMLRW5n
aW5lZXJpbmcxHDAaBgNVBAMTE0hhbWlsbGVyLVR1YmUubG9jYWwwggIiMA0GCSqG
SIb3DQEBAQUAA4ICDwAwggIKAoICAQChpk0uOGyJmU1202m48YR0zGk1Pc/HNgbS
4/p51hf+glGFLZNyxJN+9cJRyFM4B9H6drW5HVN/NQ6zvQMXr3rNhcwUWwY4nEP+
Pl+BTB2Wk4BleHjF4nqL53huN5DxrrQhFGTz7yV3xVzT8Fw0IaYHWOD+2uAZUhZ0
3nRpSAUWp1/CKDKQ4PcVu6UKis3F4ZEsmnRr3N2ZQ4acRcP/bI+bF8Hyi6K6t2ha
xfwc/ppK1JqrbgqfLoTPL+IwDnqVHYkuPvW09hXTSiRFkKaNv3jWUAyjK+W1oSu3
Y0PLom/Pee5MVRTnAu4M2IhNhdl6oCx699HJ81jrYpFggDcEs8J0m154qbfuaUno
DXgq0Q+FBOK3Hsv5MNrUVzXf4ofLwive/gzJwteQBktCVW4xeeFWqM8trpOgzhiT
AQYOz4GUa9iYioPyxV0s2pdgFkJAvjV19tporskHCqS3XIA/w5bv+NHmL+3YnhKs
yJFLYNUtPl3NqO1LhyxTbYGa/JEq/BfpUT0lB6+IE9xBPdier2hkpNoCfBAMqxLH
wC3umdCbmzB1iG2iEIG5Bs3PEPEuYYYZZTunjyu6Vhonh1owdxWssN/AFcAcTXFw
xyfrqpSV3GUVEiQMA6NLJjGDXGVqFDLIkNujBbeMzDUoyfGIQjqodar/exhVET7W
cXQsnd7B7wIDAQABoyowKDAOBgNVHQ8BAf8EBAMCBaAwFgYDVR0lAQH/BAwwCgYI
KwYBBQUHAwEwDQYJKoZIhvcNAQEEBQADQQADr8SwaMrgiNgemChFzIR4MSUFLlMu
ECPiUcDXbMV9nuorVqLAaEkwnNILiu7SsJRsRc4AxHdoRLY6xEZW01KU
-----END CERTIFICATE-----
