Certificate:
    Data:
        Version: 3 (0x2)
        Serial Number: 1048578 (0x100002)
        Signature Algorithm: sha256WithRSAEncryption
        Issuer: C=US, ST=Massachusetts, O=Xamarin, OU=Engineering, CN=Hamiller Tube Intermediate CA
        Validity
            Not Before: Aug 10 14:23:07 2016 GMT
            Not After : Aug  8 14:23:07 2026 GMT
        Subject: C=US, ST=Massachusetts, O=Xamarin, OU=Server Certificate using Intermediate CA, CN=Intermediate-Server.local
        Subject Public Key Info:
            Public Key Algorithm: rsaEncryption
            RSA Public Key: (4096 bit)
                Modulus (4096 bit):
                    00:cf:c9:e3:a9:f3:78:a5:5f:2d:15:cf:47:03:7c:
                    bc:80:b4:1c:d0:2d:f7:1d:fb:8b:8a:ad:ff:f6:8e:
                    a6:b7:5f:4a:f0:cf:92:ac:3c:66:44:4c:0a:00:c1:
                    11:7e:f5:39:49:a8:14:f0:5b:f6:6e:52:5f:38:21:
                    65:63:e4:fa:77:00:ab:96:92:e3:5b:ab:53:d8:a1:
                    05:4f:ef:7f:53:16:9a:83:0d:91:7f:9b:8b:a0:36:
                    9e:a4:1f:80:35:7a:42:30:09:7d:41:c9:80:8c:57:
                    2c:4f:62:91:ae:82:7e:f1:4f:d3:4f:c1:20:6f:a9:
                    4d:9b:cd:55:e1:20:17:99:e9:ba:39:41:70:5e:92:
                    1a:73:a1:73:69:85:f9:5c:e4:3d:66:56:d0:3e:de:
                    81:3d:2c:d1:d0:62:18:75:c7:a1:84:4e:59:3b:05:
                    48:4a:b9:ca:24:0f:e5:a7:63:7d:d3:0c:c3:74:91:
                    4d:98:60:a8:ec:7f:87:c2:8f:be:4c:29:ef:48:0e:
                    55:ea:e6:38:9a:0a:69:4e:4d:0f:94:e0:60:1b:5a:
                    af:4c:75:64:91:2c:67:e6:23:ef:a9:e0:e9:b7:02:
                    a3:75:7d:ca:30:3a:f7:1c:93:09:5b:40:49:a7:4d:
                    ae:af:37:db:b2:d9:b2:ed:dd:37:46:f1:a9:20:f4:
                    e5:b3:18:2a:5e:e7:73:c9:ef:1c:71:1d:22:d9:ac:
                    5e:2f:e4:cb:4a:d1:09:7d:46:38:1e:11:4d:2f:a6:
                    ec:95:54:c6:23:a7:ee:da:13:d8:3f:c7:ca:98:b4:
                    e5:ab:58:5e:64:71:99:f4:bc:95:ce:35:db:c9:04:
                    54:b3:ea:c4:ff:ec:7c:34:6e:01:5f:35:74:e8:74:
                    b7:6c:6f:b1:06:5b:39:7d:6f:c0:c4:e6:c2:53:d2:
                    c2:26:69:e8:60:a9:19:74:34:a8:3c:00:21:ca:87:
                    6a:1e:6d:ff:fd:98:9f:ff:a5:4b:17:7e:80:22:6c:
                    2f:b1:b8:65:75:b9:61:fe:9d:3f:9b:02:42:46:33:
                    c4:ce:91:53:bb:75:fd:98:2e:ae:fe:85:e9:7b:cf:
                    3e:44:99:9c:36:7d:7b:3b:75:79:1d:c0:56:f3:83:
                    8a:bb:00:e8:12:fd:89:ab:30:59:42:18:b8:13:9d:
                    f2:51:ae:b5:ba:b7:98:53:c8:f6:20:82:de:05:27:
                    87:9c:b9:e2:e8:42:ff:32:a1:5c:ce:b5:cb:4f:8a:
                    cc:91:56:b8:21:b6:8e:d5:5a:a0:8c:f0:dd:2c:c1:
                    32:fd:1f:d9:11:3a:cc:9c:93:c2:a0:d7:0e:00:41:
                    7e:a2:a0:41:89:eb:64:9b:53:e5:95:72:58:f9:ec:
                    ce:55:59
                Exponent: 65537 (0x10001)
        X509v3 extensions:
            X509v3 Key Usage: critical
                Digital Signature, Key Encipherment
            X509v3 Extended Key Usage: critical
                TLS Web Server Authentication
    Signature Algorithm: sha256WithRSAEncryption
        9e:dd:71:b1:75:48:08:ad:b6:b0:59:b0:9f:80:06:c1:cd:13:
        48:7b:e4:ad:cb:ed:03:aa:34:e3:70:5c:9d:2b:e1:70:a3:b0:
        1a:7e:bc:1e:e3:10:de:9c:a7:ab:5f:1f:5d:0d:6a:cc:2e:97:
        bb:36:6f:37:94:93:b4:0a:1c:09:eb:f1:cb:a0:ff:a6:f5:08:
        df:57:6b:5c:c3:84:97:94:24:0c:ee:96:1c:c1:33:f7:a8:20:
        cf:d0:1f:07:62:37:db:fd:0b:f4:8a:fc:54:a4:53:f3:77:29:
        4e:a8:6d:b3:6d:70:66:3c:be:39:a7:de:8c:d1:b7:58:85:d1:
        f0:8b:41:81:4b:d0:9e:aa:fb:95:31:29:c8:4c:30:66:53:ac:
        f9:bf:c9:13:b0:1b:22:c6:b7:d6:ea:a8:75:33:48:7e:ea:4c:
        56:44:47:ad:9b:f1:d1:93:64:d9:ae:08:b6:66:dc:cf:3a:0f:
        7b:a2:f3:18:8e:82:21:32:ae:3d:93:ad:17:4d:eb:9d:d2:c0:
        7c:f3:94:8e:da:e3:1d:43:b2:9a:77:5f:da:47:a2:b9:f5:a5:
        42:4a:4e:80:ca:95:e7:5a:c1:b2:ee:dc:9d:7a:20:6e:52:3e:
        01:21:8a:88:0d:fe:d2:28:65:1e:2f:10:c9:f0:1c:97:f5:f7:
        5d:9a:32:cf:b4:94:3a:69:99:6c:b1:c6:a9:a2:57:8b:7d:4a:
        fc:c1:61:70:c4:77:08:16:9a:d6:26:03:ba:e3:b9:e0:2d:d4:
        6a:0d:c4:da:b3:84:33:79:4b:4d:ad:45:7e:d2:be:1a:29:a9:
        6b:fd:f9:d8:be:57:ed:73:ed:6c:f7:37:da:03:01:d8:c1:22:
        42:78:9a:16:22:bf:2e:6a:08:78:a4:ad:5d:2d:06:61:43:64:
        85:1a:74:c6:b2:77:ed:86:78:51:a5:09:df:e1:bc:a2:1c:7c:
        7b:3a:bf:52:15:ea:f3:0d:9e:04:76:8d:c3:f8:0e:62:ab:1a:
        b3:6e:21:6e:13:93:15:28:98:41:d3:7b:48:3e:b0:db:94:61:
        74:0f:3d:8a:e4:2f:5d:f1:3a:01:39:0e:a1:22:eb:36:7c:1e:
        c1:61:b3:fe:be:d3:fb:06:48:fc:bb:d7:a4:a4:9e:4c:fe:7d:
        ae:3e:0d:bc:a4:00:ee:5e:55:14:a0:3f:e9:66:69:77:c0:8d:
        63:fb:0c:26:4d:0b:29:5e:92:57:87:73:d8:1a:30:83:ad:8c:
        a4:80:5f:03:78:81:03:9f:af:ba:62:a1:3a:85:d2:e2:b8:45:
        3f:98:8d:8c:2d:f9:1b:ba:0e:1c:e9:93:ca:2e:0c:71:ac:a1:
        9a:1a:11:e8:b7:b7:1b:3f
-----BEGIN CERTIFICATE-----
MIIFqzCCA5OgAwIBAgIDEAACMA0GCSqGSIb3DQEBCwUAMHUxCzAJBgNVBAYTAlVT
MRYwFAYDVQQIEw1NYXNzYWNodXNldHRzMRAwDgYDVQQKEwdYYW1hcmluMRQwEgYD
VQQLEwtFbmdpbmVlcmluZzEmMCQGA1UEAxMdSGFtaWxsZXIgVHViZSBJbnRlcm1l
ZGlhdGUgQ0EwHhcNMTYwODEwMTQyMzA3WhcNMjYwODA4MTQyMzA3WjCBjjELMAkG
A1UEBhMCVVMxFjAUBgNVBAgTDU1hc3NhY2h1c2V0dHMxEDAOBgNVBAoTB1hhbWFy
aW4xMTAvBgNVBAsTKFNlcnZlciBDZXJ0aWZpY2F0ZSB1c2luZyBJbnRlcm1lZGlh
dGUgQ0ExIjAgBgNVBAMTGUludGVybWVkaWF0ZS1TZXJ2ZXIubG9jYWwwggIiMA0G
CSqGSIb3DQEBAQUAA4ICDwAwggIKAoICAQDPyeOp83ilXy0Vz0cDfLyAtBzQLfcd
+4uKrf/2jqa3X0rwz5KsPGZETAoAwRF+9TlJqBTwW/ZuUl84IWVj5Pp3AKuWkuNb
q1PYoQVP739TFpqDDZF/m4ugNp6kH4A1ekIwCX1ByYCMVyxPYpGugn7xT9NPwSBv
qU2bzVXhIBeZ6bo5QXBekhpzoXNphflc5D1mVtA+3oE9LNHQYhh1x6GETlk7BUhK
ucokD+WnY33TDMN0kU2YYKjsf4fCj75MKe9IDlXq5jiaCmlOTQ+U4GAbWq9MdWSR
LGfmI++p4Om3AqN1fcowOvcckwlbQEmnTa6vN9uy2bLt3TdG8akg9OWzGCpe53PJ
7xxxHSLZrF4v5MtK0Ql9RjgeEU0vpuyVVMYjp+7aE9g/x8qYtOWrWF5kcZn0vJXO
NdvJBFSz6sT/7Hw0bgFfNXTodLdsb7EGWzl9b8DE5sJT0sImaehgqRl0NKg8ACHK
h2oebf/9mJ//pUsXfoAibC+xuGV1uWH+nT+bAkJGM8TOkVO7df2YLq7+hel7zz5E
mZw2fXs7dXkdwFbzg4q7AOgS/YmrMFlCGLgTnfJRrrW6t5hTyPYggt4FJ4ecueLo
Qv8yoVzOtctPisyRVrghto7VWqCM8N0swTL9H9kROsyck8Kg1w4AQX6ioEGJ62Sb
U+WVclj57M5VWQIDAQABoyowKDAOBgNVHQ8BAf8EBAMCBaAwFgYDVR0lAQH/BAww
CgYIKwYBBQUHAwEwDQYJKoZIhvcNAQELBQADggIBAJ7dcbF1SAittrBZsJ+ABsHN
E0h75K3L7QOqNONwXJ0r4XCjsBp+vB7jEN6cp6tfH10Naswul7s2bzeUk7QKHAnr
8cug/6b1CN9Xa1zDhJeUJAzulhzBM/eoIM/QHwdiN9v9C/SK/FSkU/N3KU6obbNt
cGY8vjmn3ozRt1iF0fCLQYFL0J6q+5UxKchMMGZTrPm/yROwGyLGt9bqqHUzSH7q
TFZER62b8dGTZNmuCLZm3M86D3ui8xiOgiEyrj2TrRdN653SwHzzlI7a4x1Dspp3
X9pHorn1pUJKToDKledawbLu3J16IG5SPgEhiogN/tIoZR4vEMnwHJf1912aMs+0
lDppmWyxxqmiV4t9SvzBYXDEdwgWmtYmA7rjueAt1GoNxNqzhDN5S02tRX7Svhop
qWv9+di+V+1z7Wz3N9oDAdjBIkJ4mhYivy5qCHikrV0tBmFDZIUadMayd+2GeFGl
Cd/hvKIcfHs6v1IV6vMNngR2jcP4DmKrGrNuIW4TkxUomEHTe0g+sNuUYXQPPYrk
L13xOgE5DqEi6zZ8HsFhs/6+0/sGSPy716Sknkz+fa4+DbykAO5eVRSgP+lmaXfA
jWP7DCZNCylekleHc9gaMIOtjKSAXwN4gQOfr7pioTqF0uK4RT+YjYwt+Ru6Dhzp
k8ouDHGsoZoaEei3txs/
-----END CERTIFICATE-----
