Certificate:
    Data:
        Version: 3 (0x2)
        Serial Number: 1048582 (0x100006)
        Signature Algorithm: sha256WithRSAEncryption
        Issuer: C=US, ST=Massachusetts, O=Xamarin, OU=Engineering, CN=Intermediate Test CA
        Validity
            Not Before: Aug 15 17:04:32 2016 GMT
            Not After : Aug 13 17:04:32 2026 GMT
        Subject: C=US, ST=Massachusetts, O=Xamarin, OU=Engineering, CN=intermediate-server.local
        Subject Public Key Info:
            Public Key Algorithm: rsaEncryption
            RSA Public Key: (4096 bit)
                Modulus (4096 bit):
                    00:ae:e3:a0:93:21:66:38:b6:27:b7:a0:bd:17:4b:
                    a1:a2:c7:e8:7e:85:e6:c8:dd:9d:51:f0:15:f9:c7:
                    74:f8:2e:56:4d:90:6c:11:39:f4:c1:2f:9a:dd:6d:
                    aa:cf:1d:35:c6:43:28:01:2a:90:90:52:bd:b5:2e:
                    e3:ab:dd:92:c2:ee:00:a5:a3:a1:2b:d9:67:99:31:
                    ad:15:87:3b:fa:bb:22:6d:43:46:ca:c7:5c:1f:23:
                    bd:31:2e:01:af:a1:fe:6b:4e:61:19:ec:14:fd:af:
                    f8:63:ec:71:c2:8c:f2:a6:f1:1d:40:5c:13:92:b0:
                    00:a6:e3:d5:75:7f:8f:a5:cc:97:8b:80:f3:ff:e6:
                    cc:67:7d:87:ae:5f:e5:77:c0:c8:b9:d0:a2:21:e4:
                    22:42:f9:b5:96:9f:96:b7:4d:a8:f1:41:20:b6:86:
                    d2:3c:32:cb:70:97:20:6e:60:e7:4f:c8:10:1f:97:
                    bd:30:06:1d:6b:34:9c:b0:e7:e0:f5:cc:e9:98:cd:
                    a1:2a:8a:ef:e5:cd:98:2a:52:e9:4d:eb:5c:28:c4:
                    d3:46:00:25:4e:83:dd:fb:e2:ff:31:46:7b:93:f2:
                    cd:d9:27:35:6c:8e:18:3b:ac:e1:a5:52:93:3b:1c:
                    9e:13:57:30:72:ce:9e:ae:6e:88:30:c3:05:bd:1f:
                    64:eb:44:30:ff:9e:d0:84:6b:50:3b:5b:98:9d:54:
                    4c:90:d2:72:8e:e4:9e:ad:d8:9c:0f:87:14:9f:15:
                    cb:e9:3a:cf:a6:b3:54:7f:ad:9d:be:9c:95:12:77:
                    62:d9:46:eb:56:ce:db:25:32:a0:d7:6d:18:cd:6a:
                    01:d8:3f:91:93:53:70:65:de:35:f3:d3:5f:6b:44:
                    42:12:b2:ca:22:3a:f7:4d:dd:76:28:2a:1d:4c:03:
                    c6:3f:cd:df:84:03:be:78:1b:73:17:a6:bc:78:2f:
                    79:02:2c:45:c7:6d:cf:00:b8:af:34:5a:18:dc:ec:
                    d7:fb:0a:be:3d:46:f1:47:fb:05:80:0c:e1:7a:61:
                    2d:d3:91:cb:1d:8f:1d:9d:d1:32:d2:22:b0:17:f9:
                    d9:bc:93:cd:75:ad:86:b3:f8:1a:9c:de:aa:9d:8c:
                    2a:da:2c:b4:5c:54:71:1a:43:db:d9:fe:b1:b9:05:
                    45:ca:d6:65:fa:b2:1e:47:77:87:47:2e:11:5a:79:
                    f9:1f:ac:8b:83:17:50:bd:9a:99:34:b2:10:43:b2:
                    5d:d0:7e:f5:b5:44:a5:67:b0:52:2f:4d:ad:86:e5:
                    3e:9f:0e:ac:53:be:b7:47:b0:32:67:ec:c3:91:0e:
                    0d:72:7e:8d:e4:2c:5c:d4:a4:aa:f2:9a:59:78:88:
                    3a:50:6d
                Exponent: 65537 (0x10001)
        X509v3 extensions:
            X509v3 Key Usage: critical
                Digital Signature, Key Encipherment
            X509v3 Extended Key Usage: critical
                TLS Web Server Authentication
    Signature Algorithm: sha256WithRSAEncryption
        9e:b8:18:9c:44:f2:7d:60:84:60:01:69:5f:23:c3:51:5f:ff:
        2b:fb:99:a2:1b:d0:0c:7c:ca:64:a2:b8:01:83:1a:d6:94:da:
        ea:f7:5a:26:ed:d2:9b:03:e4:3a:9a:54:57:a2:74:13:1b:a8:
        7a:74:82:e8:35:6d:37:af:64:82:53:e2:f5:6a:b3:73:57:dc:
        4e:b4:45:f8:27:3b:1a:01:5b:83:a2:ff:d3:fc:24:27:b4:63:
        74:d2:b4:b8:03:bb:18:2c:ab:e3:aa:b8:c2:7f:6d:1b:67:f1:
        16:15:21:bb:6c:df:08:fa:f2:38:bb:12:d5:b3:72:54:69:8f:
        b3:04:59:89:c4:91:3f:c9:07:0e:1d:00:55:ed:c1:5c:e8:ec:
        23:e7:49:89:52:ef:81:78:41:dc:6f:f6:83:7f:6f:fc:ed:d0:
        99:0b:c2:f0:34:1f:56:39:e1:79:29:15:15:21:fa:b3:c1:ce:
        d4:f5:5c:76:8c:59:21:e5:5f:fb:ea:c5:7d:59:3c:9b:2b:04:
        6c:f7:21:be:25:0c:39:3f:8a:10:c0:11:07:38:91:b4:ae:68:
        78:75:53:d1:d4:99:cc:44:58:29:72:93:25:99:21:8f:b7:75:
        8a:c8:b2:e3:e2:1b:fc:f9:29:40:94:41:39:99:c9:ae:02:c9:
        41:aa:36:94:ec:7f:3a:be:d6:da:4f:fc:71:b2:03:4e:66:fb:
        a9:63:1c:26:49:72:7c:f3:f0:9f:08:46:dc:57:42:31:67:e9:
        a6:77:48:75:2e:7d:82:40:92:e0:13:ed:76:43:32:8d:6c:e1:
        5f:07:bd:b8:e7:e5:13:d4:9d:b3:dc:22:ac:a7:cb:da:0b:53:
        0e:0c:b0:aa:77:57:73:72:6d:30:62:7f:d0:85:ea:f8:c5:7f:
        4c:e4:30:28:c1:59:11:b7:38:e1:40:0f:cd:f9:65:7d:73:ae:
        7a:45:02:b5:6e:f7:cc:51:cd:f4:0c:1b:f6:c5:d5:b3:11:94:
        86:38:d5:17:c9:f1:81:e3:e1:5a:9c:59:97:88:50:92:21:1d:
        65:c9:d6:15:da:39:8a:68:ee:3f:66:d5:6b:f4:e4:ee:85:70:
        39:d2:89:32:a4:08:e0:0c:2c:7a:77:72:6d:08:9d:f7:b1:9d:
        ce:43:8c:b1:b4:4b:fd:dd:66:af:a5:5b:d1:da:08:3e:bf:b7:
        a0:13:bf:16:4c:92:a7:6b:68:5a:49:a9:a7:2b:67:e4:b1:13:
        fd:3d:41:4e:8f:40:bf:af:b1:02:19:41:7b:04:c8:b8:f0:32:
        c9:b5:82:b3:50:92:cc:59:f3:4c:56:2b:64:56:85:31:f8:26:
        3a:93:36:f1:4c:4a:22:8d
-----BEGIN CERTIFICATE-----
MIIFhDCCA2ygAwIBAgIDEAAGMA0GCSqGSIb3DQEBCwUAMGwxCzAJBgNVBAYTAlVT
MRYwFAYDVQQIEw1NYXNzYWNodXNldHRzMRAwDgYDVQQKEwdYYW1hcmluMRQwEgYD
VQQLEwtFbmdpbmVlcmluZzEdMBsGA1UEAxMUSW50ZXJtZWRpYXRlIFRlc3QgQ0Ew
HhcNMTYwODE1MTcwNDMyWhcNMjYwODEzMTcwNDMyWjBxMQswCQYDVQQGEwJVUzEW
MBQGA1UECBMNTWFzc2FjaHVzZXR0czEQMA4GA1UEChMHWGFtYXJpbjEUMBIGA1UE
CxMLRW5naW5lZXJpbmcxIjAgBgNVBAMTGWludGVybWVkaWF0ZS1zZXJ2ZXIubG9j
YWwwggIiMA0GCSqGSIb3DQEBAQUAA4ICDwAwggIKAoICAQCu46CTIWY4tie3oL0X
S6Gix+h+hebI3Z1R8BX5x3T4LlZNkGwROfTBL5rdbarPHTXGQygBKpCQUr21LuOr
3ZLC7gClo6Er2WeZMa0Vhzv6uyJtQ0bKx1wfI70xLgGvof5rTmEZ7BT9r/hj7HHC
jPKm8R1AXBOSsACm49V1f4+lzJeLgPP/5sxnfYeuX+V3wMi50KIh5CJC+bWWn5a3
TajxQSC2htI8MstwlyBuYOdPyBAfl70wBh1rNJyw5+D1zOmYzaEqiu/lzZgqUulN
61woxNNGACVOg9374v8xRnuT8s3ZJzVsjhg7rOGlUpM7HJ4TVzByzp6ubogwwwW9
H2TrRDD/ntCEa1A7W5idVEyQ0nKO5J6t2JwPhxSfFcvpOs+ms1R/rZ2+nJUSd2LZ
RutWztslMqDXbRjNagHYP5GTU3Bl3jXz019rREISssoiOvdN3XYoKh1MA8Y/zd+E
A754G3MXprx4L3kCLEXHbc8AuK80Whjc7Nf7Cr49RvFH+wWADOF6YS3Tkcsdjx2d
0TLSIrAX+dm8k811rYaz+Bqc3qqdjCraLLRcVHEaQ9vZ/rG5BUXK1mX6sh5Hd4dH
LhFaefkfrIuDF1C9mpk0shBDsl3QfvW1RKVnsFIvTa2G5T6fDqxTvrdHsDJn7MOR
Dg1yfo3kLFzUpKrymll4iDpQbQIDAQABoyowKDAOBgNVHQ8BAf8EBAMCBaAwFgYD
VR0lAQH/BAwwCgYIKwYBBQUHAwEwDQYJKoZIhvcNAQELBQADggIBAJ64GJxE8n1g
hGABaV8jw1Ff/yv7maIb0Ax8ymSiuAGDGtaU2ur3Wibt0psD5DqaVFeidBMbqHp0
gug1bTevZIJT4vVqs3NX3E60RfgnOxoBW4Oi/9P8JCe0Y3TStLgDuxgsq+OquMJ/
bRtn8RYVIbts3wj68ji7EtWzclRpj7MEWYnEkT/JBw4dAFXtwVzo7CPnSYlS74F4
Qdxv9oN/b/zt0JkLwvA0H1Y54XkpFRUh+rPBztT1XHaMWSHlX/vqxX1ZPJsrBGz3
Ib4lDDk/ihDAEQc4kbSuaHh1U9HUmcxEWClykyWZIY+3dYrIsuPiG/z5KUCUQTmZ
ya4CyUGqNpTsfzq+1tpP/HGyA05m+6ljHCZJcnzz8J8IRtxXQjFn6aZ3SHUufYJA
kuAT7XZDMo1s4V8Hvbjn5RPUnbPcIqyny9oLUw4MsKp3V3NybTBif9CF6vjFf0zk
MCjBWRG3OOFAD835ZX1zrnpFArVu98xRzfQMG/bF1bMRlIY41RfJ8YHj4VqcWZeI
UJIhHWXJ1hXaOYpo7j9m1Wv05O6FcDnSiTKkCOAMLHp3cm0Infexnc5DjLG0S/3d
Zq+lW9HaCD6/t6ATvxZMkqdraFpJqacrZ+SxE/09QU6PQL+vsQIZQXsEyLjwMsm1
grNQksxZ80xWK2RWhTH4JjqTNvFMSiKN
-----END CERTIFICATE-----
