Certificate:
    Data:
        Version: 3 (0x2)
        Serial Number: 1048584 (0x100008)
        Signature Algorithm: sha256WithRSAEncryption
        Issuer: C=US, ST=Massachusetts, O=Xamarin, OU=Engineering, CN=Hamiller Tube Intermediate CA
        Validity
            Not Before: Aug 24 22:36:35 2016 GMT
            Not After : Aug 22 22:36:35 2026 GMT
        Subject: C=US, ST=Massachusetts, O=Xamarin, OU=Server Certificate using Intermediate CA, CN=Intermediate-Server.local
        Subject Public Key Info:
            Public Key Algorithm: rsaEncryption
            RSA Public Key: (4096 bit)
                Modulus (4096 bit):
                    00:bc:8d:8a:09:93:2e:c7:0c:36:53:97:93:c8:f1:
                    d5:ef:1c:9d:c7:96:bc:bb:d0:8a:6e:66:86:c9:98:
                    9f:0f:19:06:ed:64:f6:64:3c:5a:0e:9a:b2:0d:7e:
                    85:8e:52:71:0a:45:08:0b:ef:fd:ed:8c:2e:79:09:
                    5c:f4:3e:8c:75:63:bd:fb:42:c2:2b:55:d5:15:55:
                    af:46:82:95:21:78:70:f1:30:c6:4f:70:36:1e:a1:
                    07:cb:6b:0a:0f:14:c0:44:52:e6:45:82:c7:39:83:
                    36:0a:b9:04:31:cd:1e:72:69:20:6b:c3:39:64:b6:
                    70:f6:0a:c6:f6:e6:26:d9:0d:d3:9b:3c:dd:4d:6b:
                    a2:0f:95:e8:ca:ad:ed:37:d6:6f:af:ff:da:0d:b6:
                    d4:16:b6:14:2f:9d:66:9d:0a:11:3f:a9:6f:14:6f:
                    8b:aa:67:a8:f3:b9:18:1d:17:02:f4:9d:7e:2f:43:
                    95:24:8b:84:cf:03:44:6a:12:5d:0a:2c:77:4b:6d:
                    c5:7f:9a:a6:13:20:03:c7:b8:69:98:25:7f:ce:87:
                    76:c4:50:4c:70:f2:30:c6:a2:07:c5:af:ac:61:5a:
                    10:23:51:f5:3d:6f:72:f6:39:53:07:ee:da:1b:50:
                    3e:61:fa:b4:d1:2b:61:68:22:9b:df:c3:ee:3e:ab:
                    c2:d2:82:45:2c:1f:16:c8:fb:c7:20:67:f9:56:e7:
                    c7:1c:3c:fc:c8:48:d8:7f:33:d1:e3:0f:73:ee:cf:
                    ac:68:c3:72:b8:b7:d7:78:8f:3b:e3:84:78:5c:5a:
                    98:5e:52:8f:94:99:15:d0:62:1f:de:e8:49:f0:84:
                    c8:1d:51:e7:97:17:8b:f0:b3:f7:86:4d:79:f1:dc:
                    f4:bf:57:fa:19:96:76:e8:98:3f:e7:d5:0c:8b:05:
                    e3:05:43:5c:06:17:41:4e:d0:2d:fd:fc:bf:bd:dc:
                    b3:9d:44:ef:b5:76:19:6a:67:45:3f:76:43:f7:d2:
                    85:4b:43:b3:56:5f:33:db:f7:b9:4f:77:e4:da:2b:
                    96:c8:6b:b0:99:91:84:a1:2d:cf:9b:ab:2d:98:13:
                    12:07:e1:39:6e:f3:65:12:02:de:0b:e3:56:e8:23:
                    ac:fb:2a:e7:c4:78:ea:43:1d:82:89:9f:c7:b1:14:
                    0a:e5:75:ee:3d:42:d4:1c:23:2a:37:82:d0:2d:87:
                    e0:57:68:e0:f1:c4:6b:6a:39:9e:eb:a4:1d:dc:4d:
                    ed:04:1a:6f:65:26:43:c4:ed:ef:71:dc:72:ce:95:
                    89:bb:3a:ba:82:97:8c:4f:2e:e9:52:38:01:97:25:
                    61:80:a9:33:4f:71:54:44:7a:4e:c5:6c:fb:fc:c7:
                    1c:5e:47
                Exponent: 65537 (0x10001)
        X509v3 extensions:
            X509v3 Key Usage: critical
                Digital Signature, Key Encipherment
            X509v3 Extended Key Usage: critical
                TLS Web Server Authentication
    Signature Algorithm: sha256WithRSAEncryption
        8d:b3:d7:63:d5:46:b9:66:41:ae:9b:ec:7a:99:eb:82:cf:40:
        b0:29:cb:9f:3f:e1:e3:90:a6:fd:de:cb:fa:12:c4:77:0f:17:
        25:a9:03:54:42:a7:92:a1:5d:d4:db:51:6c:f6:ca:6a:57:2a:
        da:14:31:be:85:d7:c2:f2:a2:d1:ae:cb:55:da:4e:f6:38:6f:
        d5:ae:5b:6d:68:ae:dd:a5:29:c8:7a:e8:0c:7b:28:47:b5:78:
        dd:44:d9:52:c9:64:33:39:36:08:5e:1f:56:c7:0b:d5:3d:32:
        03:b4:b8:4b:28:0d:93:2d:11:25:2d:6d:79:4f:fe:76:39:f0:
        ac:e3:25:4a:7f:74:88:a3:aa:9c:a2:0d:da:a1:f3:66:d1:67:
        91:8f:7e:dd:39:e5:a2:d4:ee:ca:c4:5d:be:e3:83:e4:97:20:
        02:92:d5:19:0b:f9:7d:ad:5a:52:02:f2:c1:b9:08:8a:5a:c4:
        a8:2b:6b:dc:7b:0e:54:f1:77:10:4c:68:c2:6b:25:77:e3:35:
        5f:7f:8b:58:8d:29:99:7b:92:6a:45:4b:a0:dc:c7:4c:48:f6:
        c6:92:9d:ae:a4:6f:cd:39:ef:72:a8:cc:41:af:e6:f0:47:ad:
        77:f9:5f:27:e7:a9:4d:60:4d:9e:85:21:bb:8b:62:41:39:3b:
        d7:86:6e:b6:06:e3:ef:0a:68:b9:a2:19:ff:8a:e3:dc:66:04:
        3c:bd:f3:25:54:94:ab:ad:97:87:b4:35:b8:db:21:9f:8d:72:
        49:75:66:92:b4:93:fa:6c:91:fa:8c:61:42:6f:80:67:c5:a3:
        0e:e1:de:3e:4e:0d:0b:7c:e9:55:2e:6d:c5:36:8c:4f:07:40:
        49:e3:eb:f4:a1:49:f6:d4:73:df:6d:47:60:15:1e:c6:0e:02:
        af:47:a1:6b:f3:09:e0:0c:81:69:62:33:af:53:69:a2:3c:ec:
        dd:ff:b8:33:83:85:c5:4f:ef:c6:6c:1f:5c:6f:a7:ed:ec:54:
        7f:af:f5:48:1a:c3:89:8b:81:c5:51:dc:d9:42:c0:df:69:5e:
        bf:be:c1:18:77:b6:15:d1:0f:79:11:bc:a3:91:c6:54:74:ee:
        9c:09:ad:12:0f:2a:a7:04:06:31:4e:c5:75:23:3d:c6:07:e3:
        b1:c0:3c:9f:7c:74:bf:81:92:0e:5e:17:51:02:f0:86:f1:10:
        5c:e6:7f:ae:53:c9:2b:3c:5e:05:8c:33:36:61:ac:de:a9:12:
        93:b5:14:c4:20:85:84:92:36:b0:83:94:2e:6d:2f:98:3c:ec:
        31:9f:d9:2d:4c:1f:d0:0f:84:42:2f:05:7d:b3:ad:c0:fb:58:
        04:b8:dd:5b:66:0f:31:8e
-----BEGIN CERTIFICATE-----
MIIFqzCCA5OgAwIBAgIDEAAIMA0GCSqGSIb3DQEBCwUAMHUxCzAJBgNVBAYTAlVT
MRYwFAYDVQQIEw1NYXNzYWNodXNldHRzMRAwDgYDVQQKEwdYYW1hcmluMRQwEgYD
VQQLEwtFbmdpbmVlcmluZzEmMCQGA1UEAxMdSGFtaWxsZXIgVHViZSBJbnRlcm1l
ZGlhdGUgQ0EwHhcNMTYwODI0MjIzNjM1WhcNMjYwODIyMjIzNjM1WjCBjjELMAkG
A1UEBhMCVVMxFjAUBgNVBAgTDU1hc3NhY2h1c2V0dHMxEDAOBgNVBAoTB1hhbWFy
aW4xMTAvBgNVBAsTKFNlcnZlciBDZXJ0aWZpY2F0ZSB1c2luZyBJbnRlcm1lZGlh
dGUgQ0ExIjAgBgNVBAMTGUludGVybWVkaWF0ZS1TZXJ2ZXIubG9jYWwwggIiMA0G
CSqGSIb3DQEBAQUAA4ICDwAwggIKAoICAQC8jYoJky7HDDZTl5PI8dXvHJ3Hlry7
0IpuZobJmJ8PGQbtZPZkPFoOmrINfoWOUnEKRQgL7/3tjC55CVz0Pox1Y737QsIr
VdUVVa9GgpUheHDxMMZPcDYeoQfLawoPFMBEUuZFgsc5gzYKuQQxzR5yaSBrwzlk
tnD2Csb25ibZDdObPN1Na6IPlejKre031m+v/9oNttQWthQvnWadChE/qW8Ub4uq
Z6jzuRgdFwL0nX4vQ5Uki4TPA0RqEl0KLHdLbcV/mqYTIAPHuGmYJX/Oh3bEUExw
8jDGogfFr6xhWhAjUfU9b3L2OVMH7tobUD5h+rTRK2FoIpvfw+4+q8LSgkUsHxbI
+8cgZ/lW58ccPPzISNh/M9HjD3Puz6xow3K4t9d4jzvjhHhcWpheUo+UmRXQYh/e
6EnwhMgdUeeXF4vws/eGTXnx3PS/V/oZlnbomD/n1QyLBeMFQ1wGF0FO0C39/L+9
3LOdRO+1dhlqZ0U/dkP30oVLQ7NWXzPb97lPd+TaK5bIa7CZkYShLc+bqy2YExIH
4Tlu82USAt4L41boI6z7KufEeOpDHYKJn8exFArlde49QtQcIyo3gtAth+BXaODx
xGtqOZ7rpB3cTe0EGm9lJkPE7e9x3HLOlYm7OrqCl4xPLulSOAGXJWGAqTNPcVRE
ek7FbPv8xxxeRwIDAQABoyowKDAOBgNVHQ8BAf8EBAMCBaAwFgYDVR0lAQH/BAww
CgYIKwYBBQUHAwEwDQYJKoZIhvcNAQELBQADggIBAI2z12PVRrlmQa6b7HqZ64LP
QLApy58/4eOQpv3ey/oSxHcPFyWpA1RCp5KhXdTbUWz2ympXKtoUMb6F18LyotGu
y1XaTvY4b9WuW21ort2lKch66Ax7KEe1eN1E2VLJZDM5NgheH1bHC9U9MgO0uEso
DZMtESUtbXlP/nY58KzjJUp/dIijqpyiDdqh82bRZ5GPft055aLU7srEXb7jg+SX
IAKS1RkL+X2tWlIC8sG5CIpaxKgra9x7DlTxdxBMaMJrJXfjNV9/i1iNKZl7kmpF
S6Dcx0xI9saSna6kb80573KozEGv5vBHrXf5XyfnqU1gTZ6FIbuLYkE5O9eGbrYG
4+8KaLmiGf+K49xmBDy98yVUlKutl4e0NbjbIZ+Nckl1ZpK0k/pskfqMYUJvgGfF
ow7h3j5ODQt86VUubcU2jE8HQEnj6/ShSfbUc99tR2AVHsYOAq9HoWvzCeAMgWli
M69TaaI87N3/uDODhcVP78ZsH1xvp+3sVH+v9Ugaw4mLgcVR3NlCwN9pXr++wRh3
thXRD3kRvKORxlR07pwJrRIPKqcEBjFOxXUjPcYH47HAPJ98dL+Bkg5eF1EC8Ibx
EFzmf65TySs8XgWMMzZhrN6pEpO1FMQghYSSNrCDlC5tL5g87DGf2S1MH9APhEIv
BX2zrcD7WAS43VtmDzGO
-----END CERTIFICATE-----
