Certificate:
    Data:
        Version: 3 (0x2)
        Serial Number: 1048578 (0x100002)
    Signature Algorithm: sha256WithRSAEncryption
        Issuer: CN=Hamiller-Tube.local, C=US, ST=Massachusetts, O=Xamarin, OU=Engineering/emailAddress=martin.baulig@xamarin.com
        Validity
            Not Before: Aug 10 08:09:49 2015 GMT
            Not After : Aug  7 08:09:49 2025 GMT
        Subject: C=US, ST=Massachusetts, O=Xamarin, OU=Engineering, CN=Martins Monkey
        Subject Public Key Info:
            Public Key Algorithm: rsaEncryption
                Public-Key: (4096 bit)
                Modulus:
                    00:ce:1d:4d:10:aa:7b:00:c9:e7:95:d7:30:66:a6:
                    cf:29:92:39:1b:a5:52:ab:c2:f2:7f:84:74:57:0b:
                    b7:34:15:3e:35:35:4e:9c:3e:fe:ce:83:3d:6c:5c:
                    72:cd:55:43:f2:2b:01:b5:9e:3e:29:8c:2d:ea:ec:
                    38:4f:42:a7:b2:5f:dd:56:bd:c3:f4:0e:47:7e:e2:
                    14:4f:76:f9:de:5a:fe:07:fb:ab:36:a7:26:72:e6:
                    05:b2:fb:72:d8:fb:01:3f:99:92:e3:71:31:d8:07:
                    e6:e8:0e:7c:e8:d3:67:73:c5:3e:e8:71:f6:ee:18:
                    b1:f1:0a:55:7b:f1:7c:96:b1:fb:35:f8:61:10:e9:
                    23:77:51:4d:da:6d:c2:6d:55:b2:80:e2:59:42:a8:
                    00:98:68:de:95:af:41:da:66:67:51:ff:98:93:19:
                    53:51:83:74:2e:b5:97:b8:aa:8a:2b:36:c9:d0:97:
                    2d:77:e7:60:e1:15:23:22:75:91:a2:e0:f8:9b:4f:
                    00:b2:36:99:da:79:e1:bb:27:35:db:4e:83:91:65:
                    32:d2:2a:fd:2f:b4:f5:75:51:e2:3d:fa:b7:ae:1d:
                    83:e3:63:22:2e:40:e4:80:c3:3b:ff:bf:c3:66:96:
                    a8:68:98:9b:fd:9f:44:29:08:35:eb:06:0c:0b:a9:
                    ac:cc:e6:19:d2:f5:44:40:ad:03:87:99:89:1b:a0:
                    3a:3f:53:8e:53:7b:26:2c:90:f4:d0:a6:99:ad:49:
                    57:22:17:b6:88:fd:52:e1:80:be:97:5e:ae:cb:d3:
                    c8:af:1f:d1:95:00:5c:f2:22:bf:29:85:41:53:9e:
                    1f:2c:f0:cf:1f:b7:96:f6:49:d9:68:b0:0a:c1:75:
                    3c:91:ef:4c:01:a2:e4:13:6a:c3:88:20:92:b9:73:
                    ed:18:d0:f0:2f:57:b2:fe:ee:77:38:ee:ed:48:e7:
                    b4:cd:61:89:aa:11:9c:dc:f8:33:7b:08:68:0e:f4:
                    5c:a4:a7:41:78:aa:43:7d:7b:01:40:82:9b:b3:cf:
                    16:ec:41:ec:a8:28:f7:52:33:e8:79:86:08:d4:d4:
                    97:77:2b:2a:12:b0:fa:fe:30:d6:45:a8:85:01:f5:
                    64:a9:9e:6b:f1:6f:5d:c4:74:59:44:92:c1:d5:24:
                    0b:cb:11:ed:c8:13:e9:ac:b0:40:b8:46:eb:b6:5c:
                    6e:e8:66:3b:dd:fe:f0:48:0c:0d:d0:71:ed:69:44:
                    bf:7b:9d:bb:43:fc:22:11:5e:d2:11:31:dc:c8:85:
                    cb:89:d2:0d:04:d1:ee:2a:6b:d7:4f:d9:70:33:98:
                    b0:d4:94:c1:d9:ad:34:92:37:91:92:60:8a:77:35:
                    79:ee:43
                Exponent: 65537 (0x10001)
        X509v3 extensions:
            X509v3 Key Usage: critical
                Digital Signature, Key Encipherment, Key Agreement
            X509v3 Extended Key Usage: critical
                TLS Web Client Authentication
    Signature Algorithm: sha256WithRSAEncryption
         22:02:75:e9:21:d9:99:6a:84:1a:fa:09:67:f6:74:e5:df:a3:
         48:d7:e0:61:6e:8a:ff:33:c1:10:3e:e7:d5:cd:97:a9:9c:40:
         1e:13:99:4d:8b:5b:ec:91:c3:0d:be:9e:ea:0b:91:cd:c0:9a:
         32:fe:bb:bd:a8:9a:5c:13:f5:47:0a:31:a7:ec:a1:08:ff:96:
         4d:a6:54:4a:ee:4e:4c:04:93:55:2b:19:f6:d8:17:41:7b:b6:
         41:6d:38:e5:01:b2:d5:20:eb:ae:b3:ba:c1:8a:8d:55:10:a8:
         2b:60:94:5b:2c:dc:fa:7a:b2:fc:09:05:b2:e5:84:c6:5b:6e:
         30:db:8d:13:c3:b6:60:d5:4b:c5:d2:c3:5b:7b:3d:42:7b:c6:
         ff:e9:5a:0e:bf:a7:c3:80:98:eb:11:6b:43:0c:a2:12:3d:36:
         28:c9:29:37:b7:4d:0e:fc:2c:2a:f7:fc:18:ba:27:9c:bb:48:
         79:ae:b4:db:1b:9e:2b:94:ac:02:5f:4d:d6:6a:41:db:b5:bd:
         94:97:e5:56:89:2e:78:a3:14:1c:65:11:f8:75:ff:16:26:a9:
         73:75:7f:bc:ba:3d:e6:1c:59:61:d1:09:3d:70:20:3a:69:22:
         54:3c:b2:fe:47:c4:ce:b5:73:95:26:2c:94:3b:09:4d:b3:ef:
         01:19:2d:b8:f5:c3:00:a7:a3:28:da:f3:83:9c:3c:15:69:68:
         72:f3:da:92:cc:86:9c:04:15:6f:c8:30:f5:5b:87:b4:e0:a8:
         ac:de:ad:51:72:ee:8c:88:54:c3:d3:0c:16:55:58:b7:83:e5:
         29:13:70:3b:32:7a:3e:c1:0b:95:59:ea:4d:35:da:8e:0b:42:
         1b:86:7e:9c:f8:2d:35:62:88:a8:b2:01:aa:cb:d6:85:8f:c9:
         3c:d0:2e:28:aa:fc:7c:8a:fa:00:fd:41:6f:8e:ec:4b:1f:c2:
         79:0c:9a:ef:4d:1b:46:23:dd:ae:b3:90:fe:e4:5f:e8:20:51:
         20:13:37:f5:e7:ad:9e:15:29:13:13:0b:11:1f:ce:56:cd:e1:
         62:80:e8:21:62:61:26:8b:b6:9a:a4:9e:37:27:2b:79:53:bc:
         45:1f:98:38:e1:95:00:df:28:60:11:4c:67:3c:bc:9b:39:be:
         ba:62:08:35:e2:f3:c8:4a:84:21:93:a3:34:c3:7c:b7:1c:a6:
         ea:ab:66:29:44:8f:a6:2c:d3:b1:bf:ba:7b:cc:5a:91:b9:64:
         4c:5d:19:1a:3d:18:29:66:cc:65:b6:eb:70:f1:b4:ee:f6:6f:
         79:5a:3d:36:dc:69:b5:45:9c:6c:ee:26:7f:17:cf:62:43:3d:
         73:1e:67:46:90:0d:41:02
-----BEGIN CERTIFICATE-----
MIIFozCCA4ugAwIBAgIDEAACMA0GCSqGSIb3DQEBCwUAMIGVMRwwGgYDVQQDExNI
YW1pbGxlci1UdWJlLmxvY2FsMQswCQYDVQQGEwJVUzEWMBQGA1UECBMNTWFzc2Fj
aHVzZXR0czEQMA4GA1UEChMHWGFtYXJpbjEUMBIGA1UECxMLRW5naW5lZXJpbmcx
KDAmBgkqhkiG9w0BCQEWGW1hcnRpbi5iYXVsaWdAeGFtYXJpbi5jb20wHhcNMTUw
ODEwMDgwOTQ5WhcNMjUwODA3MDgwOTQ5WjBmMQswCQYDVQQGEwJVUzEWMBQGA1UE
CBMNTWFzc2FjaHVzZXR0czEQMA4GA1UEChMHWGFtYXJpbjEUMBIGA1UECxMLRW5n
aW5lZXJpbmcxFzAVBgNVBAMTDk1hcnRpbnMgTW9ua2V5MIICIjANBgkqhkiG9w0B
AQEFAAOCAg8AMIICCgKCAgEAzh1NEKp7AMnnldcwZqbPKZI5G6VSq8Lyf4R0Vwu3
NBU+NTVOnD7+zoM9bFxyzVVD8isBtZ4+KYwt6uw4T0Knsl/dVr3D9A5HfuIUT3b5
3lr+B/urNqcmcuYFsvty2PsBP5mS43Ex2Afm6A586NNnc8U+6HH27hix8QpVe/F8
lrH7NfhhEOkjd1FN2m3CbVWygOJZQqgAmGjela9B2mZnUf+YkxlTUYN0LrWXuKqK
KzbJ0Jctd+dg4RUjInWRouD4m08AsjaZ2nnhuyc1206DkWUy0ir9L7T1dVHiPfq3
rh2D42MiLkDkgMM7/7/DZpaoaJib/Z9EKQg16wYMC6mszOYZ0vVEQK0Dh5mJG6A6
P1OOU3smLJD00KaZrUlXIhe2iP1S4YC+l16uy9PIrx/RlQBc8iK/KYVBU54fLPDP
H7eW9knZaLAKwXU8ke9MAaLkE2rDiCCSuXPtGNDwL1ey/u53OO7tSOe0zWGJqhGc
3PgzewhoDvRcpKdBeKpDfXsBQIKbs88W7EHsqCj3UjPoeYYI1NSXdysqErD6/jDW
RaiFAfVkqZ5r8W9dxHRZRJLB1SQLyxHtyBPprLBAuEbrtlxu6GY73f7wSAwN0HHt
aUS/e527Q/wiEV7SETHcyIXLidINBNHuKmvXT9lwM5iw1JTB2a00kjeRkmCKdzV5
7kMCAwEAAaMqMCgwDgYDVR0PAQH/BAQDAgOoMBYGA1UdJQEB/wQMMAoGCCsGAQUF
BwMCMA0GCSqGSIb3DQEBCwUAA4ICAQAiAnXpIdmZaoQa+gln9nTl36NI1+Bhbor/
M8EQPufVzZepnEAeE5lNi1vskcMNvp7qC5HNwJoy/ru9qJpcE/VHCjGn7KEI/5ZN
plRK7k5MBJNVKxn22BdBe7ZBbTjlAbLVIOuus7rBio1VEKgrYJRbLNz6erL8CQWy
5YTGW24w240Tw7Zg1UvF0sNbez1Ce8b/6VoOv6fDgJjrEWtDDKISPTYoySk3t00O
/Cwq9/wYuiecu0h5rrTbG54rlKwCX03WakHbtb2Ul+VWiS54oxQcZRH4df8WJqlz
dX+8uj3mHFlh0Qk9cCA6aSJUPLL+R8TOtXOVJiyUOwlNs+8BGS249cMAp6Mo2vOD
nDwVaWhy89qSzIacBBVvyDD1W4e04Kis3q1Rcu6MiFTD0wwWVVi3g+UpE3A7Mno+
wQuVWepNNdqOC0Ibhn6c+C01YoiosgGqy9aFj8k80C4oqvx8ivoA/UFvjuxLH8J5
DJrvTRtGI92us5D+5F/oIFEgEzf1562eFSkTEwsRH85WzeFigOghYmEmi7aapJ43
Jyt5U7xFH5g44ZUA3yhgEUxnPLybOb66Ygg14vPISoQhk6M0w3y3HKbqq2YpRI+m
LNOxv7p7zFqRuWRMXRkaPRgpZsxltutw8bTu9m95Wj023Gm1RZxs7iZ/F89iQz1z
HmdGkA1BAg==
-----END CERTIFICATE-----
