Certificate:
    Data:
        Version: 3 (0x2)
        Serial Number: 1048581 (0x100005)
        Signature Algorithm: sha256WithRSAEncryption
        Issuer: CN=Hamiller Tube CA, C=US, ST=Massachusetts, O=Xamarin, OU=Engineering/emailAddress=martin.baulig@xamarin.com
        Validity
            Not Before: Aug 15 16:25:29 2016 GMT
            Not After : Aug 13 16:25:29 2026 GMT
        Subject: C=US, ST=Massachusetts, O=Xamarin, OU=Engineering, CN=Intermediate Test CA
        Subject Public Key Info:
            Public Key Algorithm: rsaEncryption
            RSA Public Key: (4096 bit)
                Modulus (4096 bit):
                    00:b2:2c:2d:7c:4a:ec:63:05:5d:a6:da:0d:30:66:
                    4b:2f:f5:70:5d:05:cf:dd:f4:38:89:ff:51:76:b8:
                    41:8f:92:07:09:4c:28:7e:d4:eb:17:88:74:07:99:
                    86:03:e1:f1:d5:89:32:52:12:5f:b3:a0:dd:72:bc:
                    e8:dd:e6:cf:90:c9:6a:45:2d:ee:9e:70:4d:21:99:
                    a3:4a:0f:f8:71:40:34:83:6d:14:7b:cb:1e:c3:8a:
                    84:d0:6b:19:c1:07:07:bf:e0:9e:66:3a:1b:9a:db:
                    51:78:1d:a1:ed:f7:fe:70:3b:e1:e2:db:ae:fc:6d:
                    b5:90:8b:05:d1:5a:4e:8e:c0:fb:61:81:a6:3d:6e:
                    04:9d:64:e8:fb:7b:90:90:11:ff:9a:80:de:e3:5b:
                    b0:06:43:d2:ba:44:3d:2f:11:57:d5:c6:88:96:de:
                    63:77:1f:89:d8:1d:b4:9d:95:a0:41:d2:d5:f6:fb:
                    52:47:2d:37:a2:cd:59:5b:3a:02:fb:33:02:03:ad:
                    b4:73:2a:27:19:81:2e:77:2a:3c:05:83:72:9d:79:
                    c8:19:ed:86:d8:24:af:25:e4:d1:22:32:b0:b3:37:
                    7d:1f:99:43:3e:5c:7f:cb:04:e6:14:2f:85:75:86:
                    14:8a:77:89:53:3b:63:7d:7f:c8:b7:f2:ab:42:c5:
                    0f:16:61:a5:68:34:05:f2:5b:f7:7d:b7:67:4f:b7:
                    a6:bd:50:cb:85:9b:db:9c:5d:9d:5e:44:17:df:ad:
                    40:b3:eb:2d:b7:d8:2a:fc:bf:8e:b1:40:53:03:b8:
                    a7:1b:a5:da:2f:0a:f0:0c:69:e7:4a:0e:4d:ca:db:
                    e2:07:89:82:8f:f6:4e:e5:19:04:bf:58:6d:77:a7:
                    f0:27:a6:a6:46:a1:f6:d2:c6:59:28:39:73:0b:61:
                    c6:d1:ef:13:52:9d:36:02:c8:72:b4:12:fd:50:1b:
                    0e:ed:a8:b2:b0:b1:19:0c:8d:fd:61:9c:7a:96:fb:
                    e6:e1:9e:8e:8f:62:34:1d:ea:ad:a3:28:24:f0:6d:
                    aa:96:91:ec:90:6e:ec:e4:99:20:d1:20:80:2e:dd:
                    f9:ad:62:ed:d9:68:12:fa:24:91:f2:a7:4b:30:62:
                    5c:88:53:69:6e:16:ff:f5:78:ab:9d:30:f4:f1:98:
                    6f:c9:5d:8d:0a:4a:0d:53:03:d0:4a:64:53:01:f2:
                    83:71:41:03:4d:82:4e:ac:59:17:5e:66:42:c0:1d:
                    b7:f5:11:a1:e6:87:dc:6d:b1:87:a9:0c:ce:e0:12:
                    ca:52:b1:d9:33:9e:ad:b1:f7:dd:ae:fa:d4:1d:4e:
                    cf:98:7a:e5:eb:b9:96:12:45:b9:81:c0:29:f0:36:
                    9c:9c:4f
                Exponent: 65537 (0x10001)
        X509v3 extensions:
            X509v3 Basic Constraints: critical
                CA:TRUE, pathlen:0
            X509v3 Key Usage: 
                Certificate Sign
    Signature Algorithm: sha256WithRSAEncryption
        7e:9a:68:2d:b9:e7:d0:0f:7e:b8:60:91:21:64:f7:13:2a:0f:
        20:24:b0:46:b6:7a:b6:19:38:39:f2:c4:cd:5a:9d:3a:1b:a2:
        90:fe:52:51:8a:0e:14:83:42:e0:0b:8c:79:e3:f4:b7:c0:89:
        64:e2:35:2f:c1:64:0b:b9:24:e7:4f:e6:16:92:e2:3f:be:db:
        60:c3:87:89:79:e7:bc:ad:bd:81:2e:af:14:e8:76:e6:6e:3d:
        25:43:d9:f5:91:ba:a8:41:e5:32:c4:6c:db:aa:b5:68:de:18:
        f0:52:ac:92:3a:f3:63:2c:cc:80:35:ad:77:22:3c:56:87:92:
        4f:2f:e9:31:da:ad:de:3a:01:1e:5c:f9:46:4a:2c:ef:1c:4e:
        f9:c2:95:0c:cb:bd:cf:e5:6f:1d:e1:f6:2c:3e:f2:00:02:05:
        85:a3:9c:3d:0e:54:59:d2:d9:d1:18:d2:f3:60:c0:7f:87:f2:
        42:ce:e6:e1:d5:45:7f:a3:87:69:77:de:de:db:d1:9e:3f:6b:
        e7:c7:e6:b6:12:b0:e6:1c:e4:d4:17:c5:6f:ea:9a:a2:ba:1a:
        3b:b4:2f:fc:b1:73:1a:2d:b8:fe:65:24:0c:29:81:fa:d2:35:
        1e:35:90:56:cb:47:1b:ac:9a:f1:5e:69:ee:28:8f:70:1e:c1:
        bc:82:fb:a2:b5:5f:03:1b:4d:78:dd:63:02:84:3f:18:9c:9e:
        85:a6:b3:ae:bb:07:ae:d3:5a:d0:18:2b:e8:0a:75:c2:12:81:
        70:03:89:d8:df:8a:e9:df:4f:26:7b:d7:64:83:b3:4b:1d:99:
        4e:09:7f:96:17:a3:6b:d6:57:aa:9a:cd:f7:57:c4:09:9e:a2:
        2e:e9:8d:86:81:8f:7b:a6:70:de:93:ed:f0:67:0c:e2:2b:60:
        01:f3:13:7f:b5:0b:5d:07:d5:16:7f:c6:f5:2e:9c:55:c3:b3:
        16:3d:20:76:34:aa:e2:13:c4:37:f2:cb:e9:8b:20:f8:5d:ed:
        45:8a:e2:a1:5e:73:3c:54:34:a9:4a:fd:9a:fb:82:26:78:20:
        29:91:16:f1:97:18:33:b9:c2:79:e8:05:fd:ed:df:9b:68:4c:
        ba:f5:d6:ca:ce:d2:b9:dc:e9:2e:7d:41:bb:c4:5e:fb:1c:5d:
        a3:07:ed:c1:70:38:e6:d7:ca:2f:6e:98:ec:32:e1:3a:0e:9d:
        ef:a2:98:0d:d0:ca:44:43:21:0d:ff:fc:0c:36:1c:b9:7a:28:
        4e:0c:39:04:7e:3e:5c:d2:c9:ed:c8:94:6c:42:67:99:a1:f8:
        8d:c9:fe:46:2e:81:d2:47:cc:24:9e:6d:d7:f5:b8:94:37:05:
        82:cc:ad:d9:0e:dc:7d:fc
-----BEGIN CERTIFICATE-----
MIIFnzCCA4egAwIBAgIDEAAFMA0GCSqGSIb3DQEBCwUAMIGSMRkwFwYDVQQDExBI
YW1pbGxlciBUdWJlIENBMQswCQYDVQQGEwJVUzEWMBQGA1UECBMNTWFzc2FjaHVz
ZXR0czEQMA4GA1UEChMHWGFtYXJpbjEUMBIGA1UECxMLRW5naW5lZXJpbmcxKDAm
BgkqhkiG9w0BCQEWGW1hcnRpbi5iYXVsaWdAeGFtYXJpbi5jb20wHhcNMTYwODE1
MTYyNTI5WhcNMjYwODEzMTYyNTI5WjBsMQswCQYDVQQGEwJVUzEWMBQGA1UECBMN
TWFzc2FjaHVzZXR0czEQMA4GA1UEChMHWGFtYXJpbjEUMBIGA1UECxMLRW5naW5l
ZXJpbmcxHTAbBgNVBAMTFEludGVybWVkaWF0ZSBUZXN0IENBMIICIjANBgkqhkiG
9w0BAQEFAAOCAg8AMIICCgKCAgEAsiwtfErsYwVdptoNMGZLL/VwXQXP3fQ4if9R
drhBj5IHCUwoftTrF4h0B5mGA+Hx1YkyUhJfs6Ddcrzo3ebPkMlqRS3unnBNIZmj
Sg/4cUA0g20Ue8sew4qE0GsZwQcHv+CeZjobmttReB2h7ff+cDvh4tuu/G21kIsF
0VpOjsD7YYGmPW4EnWTo+3uQkBH/moDe41uwBkPSukQ9LxFX1caIlt5jdx+J2B20
nZWgQdLV9vtSRy03os1ZWzoC+zMCA620cyonGYEudyo8BYNynXnIGe2G2CSvJeTR
IjKwszd9H5lDPlx/ywTmFC+FdYYUineJUztjfX/It/KrQsUPFmGlaDQF8lv3fbdn
T7emvVDLhZvbnF2dXkQX361As+stt9gq/L+OsUBTA7inG6XaLwrwDGnnSg5Nytvi
B4mCj/ZO5RkEv1htd6fwJ6amRqH20sZZKDlzC2HG0e8TUp02AshytBL9UBsO7aiy
sLEZDI39YZx6lvvm4Z6Oj2I0Heqtoygk8G2qlpHskG7s5Jkg0SCALt35rWLt2WgS
+iSR8qdLMGJciFNpbhb/9XirnTD08ZhvyV2NCkoNUwPQSmRTAfKDcUEDTYJOrFkX
XmZCwB239RGh5ofcbbGHqQzO4BLKUrHZM56tsffdrvrUHU7PmHrl67mWEkW5gcAp
8DacnE8CAwEAAaMjMCEwEgYDVR0TAQH/BAgwBgEB/wIBADALBgNVHQ8EBAMCAgQw
DQYJKoZIhvcNAQELBQADggIBAH6aaC2559APfrhgkSFk9xMqDyAksEa2erYZODny
xM1anTobopD+UlGKDhSDQuALjHnj9LfAiWTiNS/BZAu5JOdP5haS4j++22DDh4l5
57ytvYEurxToduZuPSVD2fWRuqhB5TLEbNuqtWjeGPBSrJI682MszIA1rXciPFaH
kk8v6THard46AR5c+UZKLO8cTvnClQzLvc/lbx3h9iw+8gACBYWjnD0OVFnS2dEY
0vNgwH+H8kLO5uHVRX+jh2l33t7b0Z4/a+fH5rYSsOYc5NQXxW/qmqK6Gju0L/yx
cxotuP5lJAwpgfrSNR41kFbLRxusmvFeae4oj3AewbyC+6K1XwMbTXjdYwKEPxic
noWms667B67TWtAYK+gKdcISgXADidjfiunfTyZ712SDs0sdmU4Jf5YXo2vWV6qa
zfdXxAmeoi7pjYaBj3umcN6T7fBnDOIrYAHzE3+1C10H1RZ/xvUunFXDsxY9IHY0
quITxDfyy+mLIPhd7UWK4qFeczxUNKlK/Zr7giZ4ICmRFvGXGDO5wnnoBf3t35to
TLr11srO0rnc6S59QbvEXvscXaMH7cFwOObXyi9umOwy4ToOne+imA3QykRDIQ3/
/Aw2HLl6KE4MOQR+PlzSye3IlGxCZ5mh+I3J/kYugdJHzCSebdf1uJQ3BYLMrdkO
3H38
-----END CERTIFICATE-----
