Certificate:
    Data:
        Version: 3 (0x2)
        Serial Number: 1048583 (0x100007)
        Signature Algorithm: sha256WithRSAEncryption
        Issuer: CN=Hamiller Tube CA, C=US, ST=Massachusetts, O=Xamarin, OU=Engineering/emailAddress=martin.baulig@xamarin.com
        Validity
            Not Before: Aug 24 21:26:15 2016 GMT
            Not After : Aug 22 21:26:15 2026 GMT
        Subject: C=US, ST=Massachusetts, O=Xamarin, OU=Engineering, CN=Hamiller-Tube.local
        Subject Public Key Info:
            Public Key Algorithm: rsaEncryption
            RSA Public Key: (4096 bit)
                Modulus (4096 bit):
                    00:de:fa:ff:aa:f2:39:6b:99:21:67:0c:9e:3c:22:
                    4e:5c:df:6b:dd:62:fa:48:66:29:77:d3:a2:14:a3:
                    e8:0a:01:1a:b1:6f:f3:29:12:0f:30:e2:df:44:2a:
                    8e:d3:b2:27:e1:01:bc:68:bb:80:54:73:09:d5:1b:
                    91:08:4e:4c:ff:f5:58:74:d2:32:eb:d2:87:a6:47:
                    d9:8b:5e:b2:a7:ac:86:54:42:5f:dc:ff:1e:c3:9d:
                    c5:04:75:73:2a:e4:af:71:1c:f5:75:4c:f5:2d:53:
                    20:5d:b9:ff:a4:d8:94:3b:ef:f3:80:10:d0:ef:e2:
                    33:a3:eb:1b:f1:ea:36:59:7e:95:fd:ca:29:37:77:
                    55:4d:91:02:c2:4c:04:17:08:05:1c:83:c4:57:c6:
                    96:7b:23:58:0a:52:b5:d4:91:95:c4:d3:ca:ad:0a:
                    de:48:c3:f6:66:2e:94:b0:1d:d2:1f:4b:76:76:f4:
                    e9:da:e0:66:94:b6:bf:fa:80:d0:22:0c:86:bc:07:
                    09:f3:02:fd:0c:04:2f:d5:93:7e:de:b2:c9:b4:6d:
                    53:3f:74:04:a3:aa:85:00:41:87:3e:a6:59:fd:7e:
                    9f:24:4c:b9:47:b2:e4:70:cd:1a:9a:ec:b8:fd:1f:
                    8f:77:6f:14:a9:a4:f1:ec:2b:fc:bb:28:65:76:8b:
                    1d:f6:df:d5:86:0c:bf:af:de:ad:2f:00:b6:50:5e:
                    be:99:8a:d3:26:67:c2:3d:c2:a2:0c:b6:e1:bf:5d:
                    8f:04:32:c9:a8:7d:5a:3f:71:50:84:73:bb:4f:1b:
                    66:34:2d:8f:0f:c8:f9:47:bf:66:dc:88:bc:fd:01:
                    47:30:ed:bd:07:59:ff:51:f5:20:ca:8c:e8:d3:ae:
                    36:77:46:59:f7:2a:3d:6c:ee:9e:e6:7f:66:77:bb:
                    e6:50:a1:70:c9:b0:be:e8:85:b7:10:02:3f:bb:63:
                    6b:26:6f:a7:c8:1e:ab:45:2b:8c:e2:d2:59:da:b4:
                    36:d1:3b:7f:7f:fa:8d:3d:c3:2f:5f:c5:51:e1:56:
                    a9:a7:ea:81:40:fb:89:50:4e:7a:9c:98:7c:e5:53:
                    b0:4c:f4:73:32:17:e0:05:c2:c4:5d:1b:1d:bd:fd:
                    20:e8:1d:c2:c0:0b:12:e9:51:76:0d:8f:1c:5e:85:
                    db:d4:a7:30:58:e4:86:a5:2c:07:c7:70:94:a7:40:
                    93:5a:96:c5:6d:9f:19:68:58:e6:a1:cd:c1:b8:9d:
                    40:96:1d:7c:34:37:84:06:e2:d2:e2:e0:29:7b:c5:
                    7d:d1:b9:c2:46:6b:a2:aa:95:ab:e5:62:a7:f3:e4:
                    37:29:34:3e:f1:f8:72:57:b8:1a:3f:66:23:1a:e2:
                    50:71:13
                Exponent: 65537 (0x10001)
        X509v3 extensions:
            X509v3 Key Usage: critical
                Digital Signature, Key Encipherment
            X509v3 Extended Key Usage: critical
                TLS Web Server Authentication
    Signature Algorithm: sha256WithRSAEncryption
        1d:12:8f:7f:f7:51:af:6e:e1:bc:92:17:fd:3f:14:30:de:d6:
        c7:52:42:84:22:73:17:c9:88:fb:60:d5:27:41:3c:c9:03:9e:
        a6:e6:9c:9d:4e:14:0e:16:9e:4f:cd:fb:e6:b8:7e:42:b7:14:
        e0:b0:0d:76:07:f6:df:72:c2:64:2d:75:46:79:e1:73:07:0f:
        d7:1a:17:93:ef:39:b1:d0:61:e8:07:83:ce:d7:ea:40:ee:93:
        42:e5:d9:8b:e3:09:a1:c9:1e:e9:c5:ba:19:94:1a:a0:d1:87:
        84:29:0f:d0:3e:b2:85:f8:a7:c0:8a:ba:1f:14:37:79:a1:46:
        59:d2:6b:c4:17:b8:d0:16:ac:9d:70:bd:7d:07:cd:50:6f:28:
        ac:38:a7:ed:cf:78:ef:d1:94:a4:4f:d6:a8:f6:4a:18:d1:19:
        f6:3e:7f:5f:8f:7e:e6:a5:5d:04:39:90:46:de:ab:1c:2e:3b:
        21:62:22:32:a9:a9:5d:39:de:1c:06:26:e4:f3:ff:42:42:78:
        5e:59:e5:a5:3a:c9:26:83:f8:14:84:93:e0:99:47:05:36:23:
        32:fe:b6:6c:be:2e:1a:20:13:a4:87:40:25:11:5a:df:68:b3:
        4e:a1:cd:20:ce:7d:0b:df:a4:97:cb:d3:44:98:e1:41:21:03:
        f3:d0:d9:c4:10:ce:02:37:55:a1:c3:bc:e7:41:73:7f:94:e2:
        19:b1:08:73:71:cb:f6:47:5d:c6:0f:47:d3:e6:44:d0:0a:9b:
        f6:2d:f7:f7:e9:ec:87:ed:a9:b5:cc:1d:5f:36:1e:9b:26:83:
        a0:67:da:95:5a:6d:6e:4b:c1:d3:d6:f4:fb:2d:68:8d:16:a9:
        2a:46:c0:e3:8b:67:17:6f:df:fc:78:69:c8:fa:09:c9:a5:73:
        7c:b0:2b:a3:09:b8:ea:97:74:59:0d:9d:1a:da:d5:eb:08:0d:
        09:5f:d5:ea:03:77:19:46:ee:be:b6:85:cf:54:14:3c:f3:99:
        54:f5:ed:f8:5e:ed:ed:ab:eb:cc:c3:d3:39:a0:7a:73:e3:8d:
        0c:87:aa:96:a4:7b:3e:90:f5:67:67:a4:97:6a:f6:1e:c0:8b:
        e5:00:df:8b:fd:e3:3f:11:bb:c8:45:6f:44:cb:f4:7a:4b:5d:
        01:c6:22:dc:0c:3a:17:0d:c2:1b:0f:3a:9b:a0:62:61:b9:40:
        12:1b:62:0f:3d:98:d3:55:26:52:19:4b:49:96:64:8d:1f:85:
        0f:b7:e2:ca:13:c6:3b:ae:d2:22:60:56:77:6b:1f:1f:75:28:
        78:a5:0c:5d:f5:33:b9:86:dd:7c:17:34:6d:ce:fd:94:26:43:
        74:f9:52:2c:8d:98:bd:2c
-----BEGIN CERTIFICATE-----
MIIFpTCCA42gAwIBAgIDEAAHMA0GCSqGSIb3DQEBCwUAMIGSMRkwFwYDVQQDExBI
YW1pbGxlciBUdWJlIENBMQswCQYDVQQGEwJVUzEWMBQGA1UECBMNTWFzc2FjaHVz
ZXR0czEQMA4GA1UEChMHWGFtYXJpbjEUMBIGA1UECxMLRW5naW5lZXJpbmcxKDAm
BgkqhkiG9w0BCQEWGW1hcnRpbi5iYXVsaWdAeGFtYXJpbi5jb20wHhcNMTYwODI0
MjEyNjE1WhcNMjYwODIyMjEyNjE1WjBrMQswCQYDVQQGEwJVUzEWMBQGA1UECBMN
TWFzc2FjaHVzZXR0czEQMA4GA1UEChMHWGFtYXJpbjEUMBIGA1UECxMLRW5naW5l
ZXJpbmcxHDAaBgNVBAMTE0hhbWlsbGVyLVR1YmUubG9jYWwwggIiMA0GCSqGSIb3
DQEBAQUAA4ICDwAwggIKAoICAQDe+v+q8jlrmSFnDJ48Ik5c32vdYvpIZil306IU
o+gKARqxb/MpEg8w4t9EKo7TsifhAbxou4BUcwnVG5EITkz/9Vh00jLr0oemR9mL
XrKnrIZUQl/c/x7DncUEdXMq5K9xHPV1TPUtUyBduf+k2JQ77/OAENDv4jOj6xvx
6jZZfpX9yik3d1VNkQLCTAQXCAUcg8RXxpZ7I1gKUrXUkZXE08qtCt5Iw/ZmLpSw
HdIfS3Z29Ona4GaUtr/6gNAiDIa8BwnzAv0MBC/Vk37essm0bVM/dASjqoUAQYc+
pln9fp8kTLlHsuRwzRqa7Lj9H493bxSppPHsK/y7KGV2ix3239WGDL+v3q0vALZQ
Xr6ZitMmZ8I9wqIMtuG/XY8EMsmofVo/cVCEc7tPG2Y0LY8PyPlHv2bciLz9AUcw
7b0HWf9R9SDKjOjTrjZ3Rln3Kj1s7p7mf2Z3u+ZQoXDJsL7ohbcQAj+7Y2smb6fI
HqtFK4zi0lnatDbRO39/+o09wy9fxVHhVqmn6oFA+4lQTnqcmHzlU7BM9HMyF+AF
wsRdGx29/SDoHcLACxLpUXYNjxxehdvUpzBY5IalLAfHcJSnQJNalsVtnxloWOah
zcG4nUCWHXw0N4QG4tLi4Cl7xX3RucJGa6KqlavlYqfz5DcpND7x+HJXuBo/ZiMa
4lBxEwIDAQABoyowKDAOBgNVHQ8BAf8EBAMCBaAwFgYDVR0lAQH/BAwwCgYIKwYB
BQUHAwEwDQYJKoZIhvcNAQELBQADggIBAB0Sj3/3Ua9u4bySF/0/FDDe1sdSQoQi
cxfJiPtg1SdBPMkDnqbmnJ1OFA4Wnk/N++a4fkK3FOCwDXYH9t9ywmQtdUZ54XMH
D9caF5PvObHQYegHg87X6kDuk0Ll2YvjCaHJHunFuhmUGqDRh4QpD9A+soX4p8CK
uh8UN3mhRlnSa8QXuNAWrJ1wvX0HzVBvKKw4p+3PeO/RlKRP1qj2ShjRGfY+f1+P
fualXQQ5kEbeqxwuOyFiIjKpqV053hwGJuTz/0JCeF5Z5aU6ySaD+BSEk+CZRwU2
IzL+tmy+LhogE6SHQCURWt9os06hzSDOfQvfpJfL00SY4UEhA/PQ2cQQzgI3VaHD
vOdBc3+U4hmxCHNxy/ZHXcYPR9PmRNAKm/Yt9/fp7IftqbXMHV82Hpsmg6Bn2pVa
bW5LwdPW9PstaI0WqSpGwOOLZxdv3/x4acj6Ccmlc3ywK6MJuOqXdFkNnRra1esI
DQlf1eoDdxlG7r62hc9UFDzzmVT17fhe7e2r68zD0zmgenPjjQyHqpakez6Q9Wdn
pJdq9h7Ai+UA34v94z8Ru8hFb0TL9HpLXQHGItwMOhcNwhsPOpugYmG5QBIbYg89
mNNVJlIZS0mWZI0fhQ+34soTxjuu0iJgVndrHx91KHilDF31M7mG3XwXNG3O/ZQm
Q3T5UiyNmL0s
-----END CERTIFICATE-----
