Certificate:
    Data:
        Version: 3 (0x2)
        Serial Number: 1048577 (0x100001)
        Signature Algorithm: sha256WithRSAEncryption
        Issuer: CN=Hamiller Tube CA, C=US, ST=Massachusetts, O=Xamarin, OU=Engineering/emailAddress=martin.baulig@xamarin.com
        Validity
            Not Before: Aug 10 14:22:50 2016 GMT
            Not After : Aug  8 14:22:50 2026 GMT
        Subject: C=US, ST=Massachusetts, O=Xamarin, OU=Engineering, CN=Hamiller Tube Intermediate CA
        Subject Public Key Info:
            Public Key Algorithm: rsaEncryption
            RSA Public Key: (4096 bit)
                Modulus (4096 bit):
                    00:e5:4e:98:42:be:ad:9f:80:4f:2c:bd:b2:65:eb:
                    e3:f7:19:54:b1:b3:4c:10:a6:48:06:44:2a:a9:69:
                    46:ef:4b:7e:0e:00:5a:f8:5f:22:e3:ab:8c:20:c1:
                    97:34:d3:93:20:64:ad:c8:72:37:be:78:14:aa:1d:
                    f2:67:89:fd:da:86:9a:cf:3d:e1:53:29:b3:2b:eb:
                    a1:3a:6f:82:ac:33:14:af:a8:2b:19:33:fb:4d:b8:
                    ec:34:45:2c:d3:f1:8e:25:6c:8e:ab:63:47:9a:d2:
                    83:00:a7:6e:50:72:d3:25:c8:b9:ed:40:95:1a:60:
                    db:94:ec:7e:04:29:f7:ef:f4:e1:a7:09:2d:1c:06:
                    d3:bf:65:1c:d4:8c:a6:6d:c7:be:1e:20:12:44:49:
                    ba:3a:d0:40:be:ea:93:c2:03:4a:77:bf:b6:da:27:
                    33:1a:68:c9:e6:69:95:f8:c8:2c:a6:5c:e9:5b:cc:
                    80:ac:ac:7c:95:f6:a1:e6:b6:1e:f8:5e:06:eb:53:
                    bf:05:59:4b:cb:bd:7d:04:47:d4:da:5c:1d:00:f5:
                    a7:78:fc:8a:bc:71:81:bb:80:d9:b9:b6:55:e5:af:
                    e9:4e:85:21:2c:23:bf:07:a5:07:31:4d:4e:ef:91:
                    5a:56:cb:31:31:22:08:d0:fc:d5:8b:78:71:29:38:
                    0d:87:41:73:29:9c:9e:4f:a7:b9:83:d1:c3:81:c3:
                    12:45:a5:27:b2:bf:e1:ed:24:75:8d:f5:8c:1d:d0:
                    61:cc:48:94:3a:94:59:19:7b:64:17:8a:9b:5f:b1:
                    fe:1f:99:39:ea:7f:8d:d7:47:19:13:78:f6:cf:b2:
                    9d:68:17:cb:75:71:29:60:ab:ee:0f:46:ff:9c:55:
                    0d:94:63:e8:53:8b:35:4c:62:d2:c2:04:d1:51:59:
                    65:39:97:da:da:63:60:84:ca:76:be:9c:64:2b:cf:
                    ba:1e:a9:66:25:6c:34:a6:ae:60:23:cc:9f:1c:09:
                    77:1f:ef:51:23:2d:d9:f7:3b:b1:8a:8e:b0:8e:ac:
                    52:12:1b:f6:53:d7:58:7b:93:15:6b:28:ba:8c:dd:
                    9e:d0:aa:40:65:86:b3:77:c5:52:bd:1d:3e:8a:50:
                    81:98:1c:b9:b7:f0:2a:a1:54:f7:21:c8:52:bd:e8:
                    0a:bb:b0:43:26:22:4e:7a:57:8f:84:e7:82:f8:ca:
                    d8:2a:ef:89:17:6b:f7:e2:b6:28:97:fb:94:cf:44:
                    f2:7d:ec:47:f8:0c:e5:4c:98:08:4b:e9:ac:5d:85:
                    ad:1d:c5:98:00:80:a1:f3:4f:cc:1c:32:1e:ac:1b:
                    28:a6:e4:55:8b:5f:73:e1:d4:ef:c1:07:87:84:4e:
                    de:15:71
                Exponent: 65537 (0x10001)
        X509v3 extensions:
            X509v3 Basic Constraints: critical
                CA:TRUE, pathlen:0
            X509v3 Key Usage: 
                Certificate Sign
    Signature Algorithm: sha256WithRSAEncryption
        59:41:88:d0:14:12:13:ec:b6:85:ca:4d:16:d2:1a:91:30:50:
        bd:1c:8f:5f:91:51:57:90:f2:10:47:ab:be:ed:5b:2b:86:94:
        40:f8:ab:2a:67:54:72:80:12:38:cb:68:67:e4:06:76:8d:4c:
        19:80:13:d5:82:2d:e8:f4:24:ca:f2:9c:97:79:5a:0f:23:59:
        53:a5:7a:fc:24:b7:21:f2:b5:89:e5:0e:d1:44:d6:8a:b3:8f:
        1e:42:be:c2:6a:ae:ce:a9:40:69:81:b1:14:3a:51:81:6d:d6:
        3f:21:cf:48:e1:0e:04:c5:1b:7d:d6:69:0d:f8:70:bb:af:0a:
        df:74:9f:93:40:54:3a:07:1b:93:19:a1:1d:d9:21:13:86:04:
        48:57:f2:d3:77:cd:1d:a2:31:2f:cd:08:c2:43:ac:9f:69:db:
        fd:15:08:b6:ef:30:94:ce:62:e4:82:30:01:2d:08:5f:77:35:
        d6:81:ab:9a:4c:8f:49:40:12:aa:c7:0b:b0:b4:8e:2d:27:bd:
        ab:99:a6:7c:b6:7b:b4:94:f1:57:51:7f:18:5d:a3:3b:4d:8c:
        d1:fb:c4:a2:d4:70:70:4b:5e:67:d0:27:d8:bf:69:87:47:9c:
        7c:6a:0e:be:a8:cb:a5:58:56:09:7d:ba:df:0b:c3:95:56:4a:
        2c:7e:63:d9:14:d4:8f:63:bc:5c:f6:ac:00:05:d9:28:69:43:
        7f:a1:3d:43:94:e1:61:e8:e6:40:3d:c9:eb:0d:2a:00:8a:ba:
        93:25:ee:aa:94:51:12:e6:14:6d:6b:3b:cb:4d:51:3d:b1:6e:
        53:e7:52:b8:06:a4:6c:ed:0f:09:06:02:d7:92:09:7e:02:8b:
        ac:23:ed:2c:b2:cb:d4:80:69:f7:9c:99:7d:52:73:a8:64:a7:
        b7:c3:1c:f4:63:3d:bc:0e:3f:d6:8e:08:55:4c:b6:4d:9d:bb:
        49:92:b2:87:4e:2d:36:ef:8a:d7:83:5b:cb:47:1a:65:91:6e:
        5f:03:ad:cb:48:85:0d:ad:bd:0d:87:ff:29:4a:37:e6:fd:78:
        74:be:ec:59:51:65:a2:29:d5:4d:3d:9c:d3:41:79:4a:44:a0:
        a2:c4:e0:2f:ea:b0:ab:5f:a2:0c:1d:35:c6:8f:a6:27:2c:65:
        ff:5e:d5:a4:8e:a8:24:1a:ce:8f:0a:47:ef:f0:05:23:d6:91:
        59:2e:10:6d:2c:a2:9c:d6:2a:1b:ab:90:4d:0a:fb:ec:bf:2f:
        5d:55:91:0a:c2:6f:b2:b4:33:14:a3:f8:26:61:31:e8:5b:9c:
        9a:79:2b:af:db:5d:6c:cc:1b:73:61:e8:b9:7e:9b:fd:e4:3d:
        c7:d0:8d:8f:dd:c8:16:3a
-----BEGIN CERTIFICATE-----
MIIFqDCCA5CgAwIBAgIDEAABMA0GCSqGSIb3DQEBCwUAMIGSMRkwFwYDVQQDExBI
YW1pbGxlciBUdWJlIENBMQswCQYDVQQGEwJVUzEWMBQGA1UECBMNTWFzc2FjaHVz
ZXR0czEQMA4GA1UEChMHWGFtYXJpbjEUMBIGA1UECxMLRW5naW5lZXJpbmcxKDAm
BgkqhkiG9w0BCQEWGW1hcnRpbi5iYXVsaWdAeGFtYXJpbi5jb20wHhcNMTYwODEw
MTQyMjUwWhcNMjYwODA4MTQyMjUwWjB1MQswCQYDVQQGEwJVUzEWMBQGA1UECBMN
TWFzc2FjaHVzZXR0czEQMA4GA1UEChMHWGFtYXJpbjEUMBIGA1UECxMLRW5naW5l
ZXJpbmcxJjAkBgNVBAMTHUhhbWlsbGVyIFR1YmUgSW50ZXJtZWRpYXRlIENBMIIC
IjANBgkqhkiG9w0BAQEFAAOCAg8AMIICCgKCAgEA5U6YQr6tn4BPLL2yZevj9xlU
sbNMEKZIBkQqqWlG70t+DgBa+F8i46uMIMGXNNOTIGStyHI3vngUqh3yZ4n92oaa
zz3hUymzK+uhOm+CrDMUr6grGTP7TbjsNEUs0/GOJWyOq2NHmtKDAKduUHLTJci5
7UCVGmDblOx+BCn37/ThpwktHAbTv2Uc1Iymbce+HiASREm6OtBAvuqTwgNKd7+2
2iczGmjJ5mmV+MgsplzpW8yArKx8lfah5rYe+F4G61O/BVlLy719BEfU2lwdAPWn
ePyKvHGBu4DZubZV5a/pToUhLCO/B6UHMU1O75FaVssxMSII0PzVi3hxKTgNh0Fz
KZyeT6e5g9HDgcMSRaUnsr/h7SR1jfWMHdBhzEiUOpRZGXtkF4qbX7H+H5k56n+N
10cZE3j2z7KdaBfLdXEpYKvuD0b/nFUNlGPoU4s1TGLSwgTRUVllOZfa2mNghMp2
vpxkK8+6HqlmJWw0pq5gI8yfHAl3H+9RIy3Z9zuxio6wjqxSEhv2U9dYe5MVayi6
jN2e0KpAZYazd8VSvR0+ilCBmBy5t/AqoVT3IchSvegKu7BDJiJOelePhOeC+MrY
Ku+JF2v34rYol/uUz0TyfexH+AzlTJgIS+msXYWtHcWYAICh80/MHDIerBsopuRV
i19z4dTvwQeHhE7eFXECAwEAAaMjMCEwEgYDVR0TAQH/BAgwBgEB/wIBADALBgNV
HQ8EBAMCAgQwDQYJKoZIhvcNAQELBQADggIBAFlBiNAUEhPstoXKTRbSGpEwUL0c
j1+RUVeQ8hBHq77tWyuGlED4qypnVHKAEjjLaGfkBnaNTBmAE9WCLej0JMrynJd5
Wg8jWVOlevwktyHytYnlDtFE1oqzjx5CvsJqrs6pQGmBsRQ6UYFt1j8hz0jhDgTF
G33WaQ34cLuvCt90n5NAVDoHG5MZoR3ZIROGBEhX8tN3zR2iMS/NCMJDrJ9p2/0V
CLbvMJTOYuSCMAEtCF93NdaBq5pMj0lAEqrHC7C0ji0nvauZpny2e7SU8VdRfxhd
oztNjNH7xKLUcHBLXmfQJ9i/aYdHnHxqDr6oy6VYVgl9ut8Lw5VWSix+Y9kU1I9j
vFz2rAAF2ShpQ3+hPUOU4WHo5kA9yesNKgCKupMl7qqUURLmFG1rO8tNUT2xblPn
UrgGpGztDwkGAteSCX4Ci6wj7Syyy9SAafecmX1Sc6hkp7fDHPRjPbwOP9aOCFVM
tk2du0mSsodOLTbviteDW8tHGmWRbl8DrctIhQ2tvQ2H/ylKN+b9eHS+7FlRZaIp
1U09nNNBeUpEoKLE4C/qsKtfogwdNcaPpicsZf9e1aSOqCQazo8KR+/wBSPWkVku
EG0sopzWKhurkE0K++y/L11VkQrCb7K0MxSj+CZhMehbnJp5K6/bXWzMG3Nh6Ll+
m/3kPcfQjY/dyBY6
-----END CERTIFICATE-----
-----BEGIN CERTIFICATE-----
MIIF6zCCA9OgAwIBAgIJALmsPB8HZoCCMA0GCSqGSIb3DQEBCwUAMIGSMRkwFwYD
VQQDExBIYW1pbGxlciBUdWJlIENBMQswCQYDVQQGEwJVUzEWMBQGA1UECBMNTWFz
c2FjaHVzZXR0czEQMA4GA1UEChMHWGFtYXJpbjEUMBIGA1UECxMLRW5naW5lZXJp
bmcxKDAmBgkqhkiG9w0BCQEWGW1hcnRpbi5iYXVsaWdAeGFtYXJpbi5jb20wHhcN
MTYwODE1MTg1NTU1WhcNMjYwODEzMTg1NTU1WjCBkjEZMBcGA1UEAxMQSGFtaWxs
ZXIgVHViZSBDQTELMAkGA1UEBhMCVVMxFjAUBgNVBAgTDU1hc3NhY2h1c2V0dHMx
EDAOBgNVBAoTB1hhbWFyaW4xFDASBgNVBAsTC0VuZ2luZWVyaW5nMSgwJgYJKoZI
hvcNAQkBFhltYXJ0aW4uYmF1bGlnQHhhbWFyaW4uY29tMIICIjANBgkqhkiG9w0B
AQEFAAOCAg8AMIICCgKCAgEArjL90cxTq7vNKptjeEzQ+IUgSxyNuqytpUFJKLcU
dShFEP5tUeOh3sRATvmAvj2Bx2E8hMQe0XQ84E5w9QNhviYTFGne6eWCov8Ofavj
xBHKoQgcG7cdhYtfabcYdceAqhxFchjdzkrruOHMpzedbycC9XaiV/nBgsgK6tvU
3O24bgE31YK+EQiQa5QNCr0xaGKZKz7gNM1BJx0+9CK0JY/kmlElx1wmuH4cykK9
0rQH3BXUQr1HJd4WZ+AsiBeMfQ9Ff6pweX1fpeimRcU3rbB99aMs2mqqkH9Iwywl
GondOR1+wUgJWF4GsIGrnOTVU5alCXdnzU+r5nSV+aNdJfFCCr3kFfV8F1129upa
KUWyqe+m9syWv/QixeUedW9PBl8CzkwJpTn6yTsW0nky+GbPzKI8KkI0n4j2HKon
J4I29baLv8KUNfWFqN3bM/S2XTgbE8M5h4NlRJYNUBo0PrfeTPbuWYP3hK/kbJs9
4ZYAQeJmgEbvfye5+ZGEIwHUH3XAD/ro+3Jw1iatn7hJO5t45SKcNzIGR6RnwMsW
rkt/TUIvMNIvEZvQBdCS5sBDPGQl8lSdqdLF5NkA+vugGdjRvBe42z17ye/O59OC
4cBGC9Mexc6YfS8n8DfFVBa4btac1//PMLv2YYFAXQZz8Kfqm6zngSnrx5NqqMa8
p1MCAwEAAaNCMEAwEgYDVR0TAQH/BAgwBgEB/wIBATALBgNVHQ8EBAMCAgQwHQYD
VR0OBBYEFBXMCpou+CaWayQvNlf7h+POphH7MA0GCSqGSIb3DQEBCwUAA4ICAQBU
fPVJ37BhJIpU/fGdiAvt8IMRIadALweX9kB7w00gloYcqHm2pjsue7xe6co8iAPz
WFl6BZhiAdYI4LKCKiri2m0jAFxp7nPK/5WHnrVKh7n32cdcN0w5s5MoC/VU4eyw
RfCGXauqdbddhA/5fnKdY2ZB97w36cY7fJZ3JZXbat5nBR/CyswOR3xa2mEc6wkL
1Tij8de27Yd3FmrTQ8pGpeCbT3L5bKxSgdWbqw+eePXvw/MG4YBUIvYhU+bvBPRY
QlS5x9sipkXEmMWT77PDyR+pwW7KRTEOO0BGR5J8aHvWDF/UWlheyU9QxHhHa8LK
gvscqy8SR79dD7ZOedmOmJ1FAbMYnUr8I4WqOszQlUihySZxF23UZgWOn40d+Q/h
CetXrwzybYzmNGuMk4HQyU26+FqjLPaZ+caKElIAI3V6h/qvajZI1z4kruJZIi/L
xjxize99tmJgp41IIxkoSdO1Pv39WMZ1T1b7qfS0UhA4hF+YXny747Th/ilbIgYV
OWfcySnyffiDjD3eJ/YVfCQfWlqnvKSqyI6s1V3b96vSgY39vEUi87eyD0zl2EMu
6c31MzerxTwwq9ouxDzHmAzvLrav/5A/UVxFHn9tZzUKuzh5+NyPQqrbPB1IIOF5
v608q2h9g90ePN4JpmDmGbmbk3fO99eKFPaqknYLSA==
-----END CERTIFICATE-----
