Certificate:
    Data:
        Version: 3 (0x2)
        Serial Number: 1048581 (0x100005)
        Signature Algorithm: sha256WithRSAEncryption
        Issuer: CN=Hamiller-Tube.local, C=US, ST=Massachusetts, O=Xamarin, OU=Engineering/emailAddress=martin.baulig@xamarin.com
        Validity
            Not Before: Jun 20 03:34:30 2016 GMT
            Not After : Jun 18 03:34:30 2026 GMT
        Subject: C=US, ST=Massachusetts, O=Xamarin, OU=Engineering, CN=Hamiller Tube Intermediate CA
        Subject Public Key Info:
            Public Key Algorithm: rsaEncryption
            RSA Public Key: (4096 bit)
                Modulus (4096 bit):
                    00:e1:db:16:69:3f:fa:e3:b7:6b:11:3e:fa:ab:0e:
                    73:ef:e8:81:6d:56:47:9d:17:9c:92:96:3e:4b:ea:
                    83:4a:37:47:f8:f8:53:9b:f1:0f:b9:2c:8a:07:57:
                    b6:ab:1e:90:37:c0:71:2f:fd:df:8f:c0:da:16:12:
                    58:1e:55:55:77:67:36:cc:bb:1b:db:81:10:2a:8c:
                    ad:a0:5f:5f:6a:b8:e6:a6:43:b8:04:ab:27:73:79:
                    b4:64:53:7e:3b:c1:fa:ec:10:90:b3:a7:42:c0:40:
                    33:52:ec:a0:b5:b8:96:d5:2a:7b:54:67:d7:4c:76:
                    0e:f0:2d:ea:8c:44:2b:be:22:fb:e7:9d:27:44:d5:
                    38:fd:30:0f:e3:b4:bc:e6:aa:d2:b2:71:f9:02:f3:
                    4e:cc:16:cd:fa:b6:cd:d8:f1:05:4e:de:1f:9c:68:
                    3e:bf:dd:83:23:e9:fa:c6:b4:c7:3c:4f:22:8a:80:
                    af:3a:4a:13:a6:8e:54:8e:44:50:cb:2d:1e:bf:27:
                    d8:c3:31:57:52:5e:25:33:97:1c:b8:55:4d:5f:33:
                    4d:48:df:86:b1:af:21:73:b4:23:f2:da:36:ef:22:
                    db:c7:f4:79:82:8f:a5:ee:fd:1d:94:62:11:d5:5a:
                    a2:56:7c:93:6f:4f:c5:02:7b:bb:75:49:1a:a2:9b:
                    68:27:f8:73:ba:83:7c:11:e6:d8:e1:4d:bf:bb:76:
                    c1:e3:be:a3:56:82:76:41:38:6d:0e:ec:a1:56:e6:
                    53:91:46:75:8a:40:6b:13:79:87:4e:50:31:19:64:
                    1d:49:95:2b:b8:cf:14:df:84:7e:4a:7f:ae:0a:5b:
                    cb:24:78:0b:33:30:b0:c6:09:96:35:fb:f3:dc:1e:
                    dc:a8:92:a1:77:47:c1:68:e4:af:c4:dc:ee:5a:c6:
                    d1:12:24:a5:91:5e:53:37:40:73:73:cc:73:fa:2a:
                    2a:8f:67:8e:af:39:f6:51:3e:84:ae:60:17:ec:f4:
                    cc:0a:4a:92:ce:00:7f:95:40:6e:d8:21:49:bf:73:
                    93:0b:f5:3d:0a:22:d1:88:f3:80:3d:a0:0d:dc:89:
                    4d:2d:8f:eb:14:6f:bf:59:90:ab:47:d3:a0:60:3e:
                    8c:25:d0:42:53:3c:f0:75:f6:39:0c:6a:39:bf:b0:
                    5b:cb:44:e7:42:21:98:18:71:12:94:02:e4:c3:08:
                    d7:17:79:86:05:b4:e6:eb:c7:15:68:ec:30:b5:b7:
                    1d:4d:52:ef:b6:6a:a0:91:8f:f3:53:86:92:1f:95:
                    8b:a1:9d:67:c0:b0:9d:84:68:e0:5b:35:a0:56:29:
                    f8:f5:6e:b7:af:8d:47:6a:cc:de:cc:bb:df:7e:7d:
                    64:84:4f
                Exponent: 65537 (0x10001)
        X509v3 extensions:
            X509v3 Basic Constraints: critical
                CA:TRUE, pathlen:0
            X509v3 Key Usage: 
                Certificate Sign
    Signature Algorithm: sha256WithRSAEncryption
        9f:06:5d:51:d3:9f:c5:75:a4:11:20:03:81:4c:f1:9c:fc:68:
        6f:82:33:6e:c9:45:c6:71:16:0f:d1:02:2b:97:c1:81:ad:44:
        cc:b3:56:be:08:8f:e0:5c:ea:65:96:7a:0c:9c:45:f3:9e:14:
        3f:4a:01:fd:93:df:a3:56:43:cc:0e:e9:36:3d:f1:24:70:4a:
        45:90:b9:8f:88:84:ba:bb:ec:00:d7:4b:d4:05:2d:41:f4:e6:
        be:25:bf:fc:e6:0a:c9:b1:52:4d:60:12:0a:5a:39:ec:40:d4:
        4c:77:ff:bc:e5:63:87:13:0a:b7:c5:90:ff:e4:e3:da:38:29:
        07:14:cd:6c:cc:ab:42:a6:c9:07:f9:33:26:3e:b8:7f:1e:0d:
        eb:41:92:d5:f6:07:cf:2c:b8:fe:2e:a7:ad:dd:de:d0:d7:1a:
        ec:e4:21:4c:a6:12:dc:4e:2b:ee:3b:4b:b4:98:e8:e0:84:e6:
        b5:a2:5e:4f:a8:8f:bf:31:75:48:5c:86:55:22:0c:8e:dc:9c:
        67:a5:da:c0:7d:d0:5e:4d:9a:3a:ec:6e:ac:b4:32:29:f2:1b:
        65:9b:0a:ba:51:77:8d:6a:60:62:21:da:79:32:6b:24:88:e3:
        e6:8e:a3:88:ee:45:82:53:cd:49:7a:36:18:e3:42:c6:8f:49:
        a7:ea:5f:bf:19:d5:9b:18:1c:1c:c0:ee:6f:18:e4:c6:3c:38:
        9e:5e:2c:88:15:da:f3:de:bb:d9:79:73:93:d0:df:76:cb:60:
        df:63:6d:d1:f0:70:a6:90:80:98:80:b5:96:83:a4:d4:92:37:
        a0:1c:b4:59:cd:ae:cf:89:99:f6:2a:f7:8d:a0:24:f1:62:04:
        cf:cf:2f:48:d5:29:d6:27:46:d4:58:ce:83:06:6f:ee:ab:64:
        da:ba:60:bd:9b:95:e7:24:e2:d5:e7:6d:12:8a:d4:d7:8e:f3:
        87:11:2a:0e:d6:a6:42:3f:01:2b:b7:a9:fa:7c:c7:c6:82:b2:
        24:db:6d:b8:c8:67:62:f2:be:c7:7c:e8:68:bb:e4:b1:65:37:
        db:00:fa:0f:81:aa:a0:ee:36:6a:d5:9b:fe:87:58:f1:7f:1a:
        85:06:23:4e:b0:ad:52:b4:ce:5f:86:21:ee:07:52:4c:b1:5d:
        cc:5f:68:09:49:a2:2e:23:77:55:12:2c:fb:08:3b:78:55:c3:
        95:61:a5:00:cd:19:ef:37:d3:01:ec:8d:f7:21:ab:85:dd:3f:
        4d:18:ae:84:88:24:e4:79:1e:a3:47:be:31:2f:f3:cd:06:19:
        ca:8a:43:8b:5f:70:f1:6a:92:53:97:6b:3d:97:fc:44:09:8b:
        27:d6:0c:f1:69:a7:95:2c
-----BEGIN CERTIFICATE-----
MIIFqzCCA5OgAwIBAgIDEAAFMA0GCSqGSIb3DQEBCwUAMIGVMRwwGgYDVQQDExNI
YW1pbGxlci1UdWJlLmxvY2FsMQswCQYDVQQGEwJVUzEWMBQGA1UECBMNTWFzc2Fj
aHVzZXR0czEQMA4GA1UEChMHWGFtYXJpbjEUMBIGA1UECxMLRW5naW5lZXJpbmcx
KDAmBgkqhkiG9w0BCQEWGW1hcnRpbi5iYXVsaWdAeGFtYXJpbi5jb20wHhcNMTYw
NjIwMDMzNDMwWhcNMjYwNjE4MDMzNDMwWjB1MQswCQYDVQQGEwJVUzEWMBQGA1UE
CBMNTWFzc2FjaHVzZXR0czEQMA4GA1UEChMHWGFtYXJpbjEUMBIGA1UECxMLRW5n
aW5lZXJpbmcxJjAkBgNVBAMTHUhhbWlsbGVyIFR1YmUgSW50ZXJtZWRpYXRlIENB
MIICIjANBgkqhkiG9w0BAQEFAAOCAg8AMIICCgKCAgEA4dsWaT/647drET76qw5z
7+iBbVZHnReckpY+S+qDSjdH+PhTm/EPuSyKB1e2qx6QN8BxL/3fj8DaFhJYHlVV
d2c2zLsb24EQKoytoF9farjmpkO4BKsnc3m0ZFN+O8H67BCQs6dCwEAzUuygtbiW
1Sp7VGfXTHYO8C3qjEQrviL7550nRNU4/TAP47S85qrSsnH5AvNOzBbN+rbN2PEF
Tt4fnGg+v92DI+n6xrTHPE8iioCvOkoTpo5UjkRQyy0evyfYwzFXUl4lM5ccuFVN
XzNNSN+Gsa8hc7Qj8to27yLbx/R5go+l7v0dlGIR1VqiVnyTb0/FAnu7dUkaopto
J/hzuoN8EebY4U2/u3bB476jVoJ2QThtDuyhVuZTkUZ1ikBrE3mHTlAxGWQdSZUr
uM8U34R+Sn+uClvLJHgLMzCwxgmWNfvz3B7cqJKhd0fBaOSvxNzuWsbREiSlkV5T
N0Bzc8xz+ioqj2eOrzn2UT6ErmAX7PTMCkqSzgB/lUBu2CFJv3OTC/U9CiLRiPOA
PaAN3IlNLY/rFG+/WZCrR9OgYD6MJdBCUzzwdfY5DGo5v7Bby0TnQiGYGHESlALk
wwjXF3mGBbTm68cVaOwwtbcdTVLvtmqgkY/zU4aSH5WLoZ1nwLCdhGjgWzWgVin4
9W63r41HaszezLvffn1khE8CAwEAAaMjMCEwEgYDVR0TAQH/BAgwBgEB/wIBADAL
BgNVHQ8EBAMCAgQwDQYJKoZIhvcNAQELBQADggIBAJ8GXVHTn8V1pBEgA4FM8Zz8
aG+CM27JRcZxFg/RAiuXwYGtRMyzVr4Ij+Bc6mWWegycRfOeFD9KAf2T36NWQ8wO
6TY98SRwSkWQuY+IhLq77ADXS9QFLUH05r4lv/zmCsmxUk1gEgpaOexA1Ex3/7zl
Y4cTCrfFkP/k49o4KQcUzWzMq0KmyQf5MyY+uH8eDetBktX2B88suP4up63d3tDX
GuzkIUymEtxOK+47S7SY6OCE5rWiXk+oj78xdUhchlUiDI7cnGel2sB90F5Nmjrs
bqy0MinyG2WbCrpRd41qYGIh2nkyaySI4+aOo4juRYJTzUl6NhjjQsaPSafqX78Z
1ZsYHBzA7m8Y5MY8OJ5eLIgV2vPeu9l5c5PQ33bLYN9jbdHwcKaQgJiAtZaDpNSS
N6ActFnNrs+JmfYq942gJPFiBM/PL0jVKdYnRtRYzoMGb+6rZNq6YL2bleck4tXn
bRKK1NeO84cRKg7WpkI/ASu3qfp8x8aCsiTbbbjIZ2Lyvsd86Gi75LFlN9sA+g+B
qqDuNmrVm/6HWPF/GoUGI06wrVK0zl+GIe4HUkyxXcxfaAlJoi4jd1USLPsIO3hV
w5VhpQDNGe830wHsjfchq4XdP00YroSIJOR5HqNHvjEv880GGcqKQ4tfcPFqklOX
az2X/EQJiyfWDPFpp5Us
-----END CERTIFICATE-----
