Certificate:
    Data:
        Version: 3 (0x2)
        Serial Number: 1048580 (0x100004)
        Signature Algorithm: sha256WithRSAEncryption
        Issuer: C=US, ST=Massachusetts, O=Xamarin, OU=Engineering, CN=Intermediate Test CA
        Validity
            Not Before: Mar 24 22:37:07 2016 GMT
            Not After : Mar 22 22:37:07 2026 GMT
        Subject: C=US, ST=Massachusetts, O=Xamarin, OU=Engineering, CN=intermediate-server.local
        Subject Public Key Info:
            Public Key Algorithm: rsaEncryption
            RSA Public Key: (4096 bit)
                Modulus (4096 bit):
                    00:d9:77:56:98:da:f2:c9:10:c1:b4:5b:50:94:65:
                    3f:56:72:1a:e7:69:47:07:85:df:09:62:ce:ec:44:
                    0f:31:49:b0:9c:e6:c7:2a:31:51:82:7f:3a:42:3c:
                    ba:de:cb:14:93:65:6f:ec:a0:ee:32:c3:fb:cf:17:
                    7f:0b:e3:c4:16:88:57:b6:e4:05:a2:be:ce:27:35:
                    56:99:cf:b4:b0:0e:e2:c9:13:a4:df:43:77:ba:fa:
                    53:36:36:81:85:89:ee:7d:d6:07:46:de:df:0c:8b:
                    a0:b8:22:13:74:4a:dc:43:2c:18:14:3c:51:5d:85:
                    1b:bd:2a:c1:9f:21:36:0f:eb:a6:11:60:0f:4d:37:
                    7c:c3:a8:ef:32:62:9d:ba:8d:5b:07:60:1a:52:37:
                    3f:6c:e7:3f:b3:c3:96:cc:db:13:43:43:b4:ea:b8:
                    73:8d:b4:21:e8:3e:b9:66:9b:aa:81:20:f8:dd:ce:
                    e3:85:d5:3d:a0:a4:be:e8:58:56:08:34:1f:91:45:
                    82:4b:16:70:88:41:10:78:79:e7:46:a7:d8:b1:32:
                    5d:47:9f:03:9a:ad:76:08:6e:a3:e2:77:9d:66:d9:
                    9b:f3:98:aa:29:d9:e7:78:67:0b:6a:aa:7e:91:27:
                    77:88:c5:b0:be:a9:e7:d1:7e:3b:f0:1b:63:e3:df:
                    df:92:d1:97:60:ac:a4:aa:ec:94:f9:5c:ac:73:ab:
                    93:99:dc:4f:00:4e:ec:95:d7:2d:b9:da:45:8b:ff:
                    e9:cc:e6:0b:93:7b:20:33:67:b3:06:13:dd:f5:e2:
                    a5:52:d5:d2:82:07:7c:5e:c3:71:05:a8:14:f2:0f:
                    8b:bf:dd:f9:14:ea:f7:44:21:6f:16:5c:b8:d0:8b:
                    0a:dd:1d:5a:4c:0b:cb:0c:be:a3:9d:ca:2a:46:57:
                    05:3e:44:70:25:3a:ea:17:10:17:8c:45:de:10:8e:
                    f7:83:9b:2b:59:07:91:6d:a2:15:e4:20:e9:13:a2:
                    4e:96:3a:d7:64:54:b3:37:35:39:4e:c6:8d:3b:60:
                    ad:5a:d2:27:a6:4e:63:39:2e:b3:0a:ea:7f:c7:e2:
                    0a:76:5d:6a:d0:6b:2d:99:30:92:bb:6c:81:db:46:
                    df:1f:83:b9:21:f0:dc:89:4c:ff:92:35:c1:c6:db:
                    bc:d5:c8:98:8f:38:a9:6a:19:01:23:ca:40:d8:d9:
                    4a:a0:46:5c:e5:68:3f:e0:ac:5c:cb:94:f4:ef:04:
                    8f:d5:e7:42:be:b2:7b:35:3c:23:c7:ea:49:47:00:
                    d6:5b:2c:61:66:27:64:7e:78:84:30:0f:91:93:a1:
                    bd:61:aa:8b:df:31:3d:1b:f0:36:2c:4f:44:5b:77:
                    ad:b2:c7
                Exponent: 65537 (0x10001)
        X509v3 extensions:
            X509v3 Key Usage: critical
                Digital Signature, Key Encipherment
            X509v3 Extended Key Usage: critical
                TLS Web Server Authentication
    Signature Algorithm: sha256WithRSAEncryption
        b1:49:a1:e7:73:08:17:57:58:69:0b:2e:a0:49:4b:05:c1:a1:
        98:b4:f5:47:7d:ad:3d:6d:fd:45:c6:00:4a:ea:82:a6:bb:7d:
        38:88:75:23:15:5e:02:70:59:95:99:61:a2:98:51:d7:13:df:
        b7:69:23:ea:ba:0a:84:65:f5:12:88:11:ca:8a:66:90:24:47:
        5a:0b:94:8c:44:fe:af:11:8b:2e:17:91:4f:a7:70:1c:f9:56:
        0a:43:d9:e0:2b:98:f8:c5:2f:f1:32:b0:c0:0d:b4:14:59:b3:
        cf:2e:4a:44:40:d0:bb:7a:42:49:aa:ea:4a:71:2f:d5:20:18:
        b2:81:aa:63:d6:25:70:3b:a2:5b:94:e2:50:c7:65:81:4a:73:
        5f:2e:f5:10:e8:84:cf:07:50:94:7b:ef:da:7c:34:52:2d:8d:
        7e:77:5f:96:73:05:77:df:17:9f:b7:a7:86:88:22:9a:83:8d:
        69:1a:28:b4:5f:13:03:20:d3:62:d6:14:28:b2:8f:ad:2d:59:
        a3:4f:64:94:1e:54:c3:b9:a8:e0:b6:ad:14:aa:18:41:2b:f0:
        fe:6c:4e:df:bd:34:7b:99:bb:80:6a:49:5d:c5:9e:9b:08:9b:
        95:d9:2f:81:37:50:ec:43:bb:93:22:72:6a:23:22:ef:fa:58:
        23:59:8f:a8:5c:a6:3c:58:58:55:32:37:31:b7:b6:f1:1f:61:
        68:04:4a:f6:6a:68:3a:a3:33:1b:c7:f2:74:75:74:d5:48:d3:
        b7:42:47:a3:df:53:87:c3:89:b3:06:53:55:3a:b5:47:79:0a:
        7e:2c:60:60:20:ab:0a:7a:57:fc:23:dd:2b:02:9a:36:5b:7f:
        26:58:59:65:2e:fb:cf:16:21:d4:a3:90:92:46:5d:5c:00:71:
        84:79:50:f7:2e:b4:bf:c9:b6:4b:45:52:1f:22:8e:2e:94:bf:
        09:c7:0b:fa:9c:b1:34:84:12:ca:14:80:de:ef:6b:8e:9b:48:
        3c:13:9b:e7:ff:d2:2f:7a:42:ac:7b:0f:50:0c:15:a1:c7:e4:
        88:b1:47:15:df:a4:63:ba:fe:8c:ba:2e:06:25:a7:7a:92:f8:
        9c:a1:62:ec:38:26:b8:12:6b:c8:4a:f7:a8:ee:af:b3:08:a9:
        0c:44:59:b5:b1:df:38:50:fa:8e:eb:3a:57:75:ec:eb:00:a1:
        93:d6:1e:3a:31:1c:3f:81:87:d5:e1:a4:06:8d:1b:d8:e2:a4:
        0e:de:8b:3f:56:58:41:20:fa:e7:b9:6d:21:88:4b:93:4a:ad:
        5b:18:ce:6c:5b:3c:88:be:c9:02:bd:de:09:06:9d:9f:45:32:
        1e:4f:7e:12:cd:8b:f7:d7
-----BEGIN CERTIFICATE-----
MIIFhDCCA2ygAwIBAgIDEAAEMA0GCSqGSIb3DQEBCwUAMGwxCzAJBgNVBAYTAlVT
MRYwFAYDVQQIEw1NYXNzYWNodXNldHRzMRAwDgYDVQQKEwdYYW1hcmluMRQwEgYD
VQQLEwtFbmdpbmVlcmluZzEdMBsGA1UEAxMUSW50ZXJtZWRpYXRlIFRlc3QgQ0Ew
HhcNMTYwMzI0MjIzNzA3WhcNMjYwMzIyMjIzNzA3WjBxMQswCQYDVQQGEwJVUzEW
MBQGA1UECBMNTWFzc2FjaHVzZXR0czEQMA4GA1UEChMHWGFtYXJpbjEUMBIGA1UE
CxMLRW5naW5lZXJpbmcxIjAgBgNVBAMTGWludGVybWVkaWF0ZS1zZXJ2ZXIubG9j
YWwwggIiMA0GCSqGSIb3DQEBAQUAA4ICDwAwggIKAoICAQDZd1aY2vLJEMG0W1CU
ZT9WchrnaUcHhd8JYs7sRA8xSbCc5scqMVGCfzpCPLreyxSTZW/soO4yw/vPF38L
48QWiFe25AWivs4nNVaZz7SwDuLJE6TfQ3e6+lM2NoGFie591gdG3t8Mi6C4IhN0
StxDLBgUPFFdhRu9KsGfITYP66YRYA9NN3zDqO8yYp26jVsHYBpSNz9s5z+zw5bM
2xNDQ7TquHONtCHoPrlmm6qBIPjdzuOF1T2gpL7oWFYINB+RRYJLFnCIQRB4eedG
p9ixMl1HnwOarXYIbqPid51m2ZvzmKop2ed4Zwtqqn6RJ3eIxbC+qefRfjvwG2Pj
39+S0ZdgrKSq7JT5XKxzq5OZ3E8ATuyV1y252kWL/+nM5guTeyAzZ7MGE9314qVS
1dKCB3xew3EFqBTyD4u/3fkU6vdEIW8WXLjQiwrdHVpMC8sMvqOdyipGVwU+RHAl
OuoXEBeMRd4QjveDmytZB5FtohXkIOkTok6WOtdkVLM3NTlOxo07YK1a0iemTmM5
LrMK6n/H4gp2XWrQay2ZMJK7bIHbRt8fg7kh8NyJTP+SNcHG27zVyJiPOKlqGQEj
ykDY2UqgRlzlaD/grFzLlPTvBI/V50K+sns1PCPH6klHANZbLGFmJ2R+eIQwD5GT
ob1hqovfMT0b8DYsT0Rbd62yxwIDAQABoyowKDAOBgNVHQ8BAf8EBAMCBaAwFgYD
VR0lAQH/BAwwCgYIKwYBBQUHAwEwDQYJKoZIhvcNAQELBQADggIBALFJoedzCBdX
WGkLLqBJSwXBoZi09Ud9rT1t/UXGAErqgqa7fTiIdSMVXgJwWZWZYaKYUdcT37dp
I+q6CoRl9RKIEcqKZpAkR1oLlIxE/q8Riy4XkU+ncBz5VgpD2eArmPjFL/EysMAN
tBRZs88uSkRA0Lt6Qkmq6kpxL9UgGLKBqmPWJXA7oluU4lDHZYFKc18u9RDohM8H
UJR779p8NFItjX53X5ZzBXffF5+3p4aIIpqDjWkaKLRfEwMg02LWFCiyj60tWaNP
ZJQeVMO5qOC2rRSqGEEr8P5sTt+9NHuZu4BqSV3FnpsIm5XZL4E3UOxDu5Micmoj
Iu/6WCNZj6hcpjxYWFUyNzG3tvEfYWgESvZqaDqjMxvH8nR1dNVI07dCR6PfU4fD
ibMGU1U6tUd5Cn4sYGAgqwp6V/wj3SsCmjZbfyZYWWUu+88WIdSjkJJGXVwAcYR5
UPcutL/JtktFUh8iji6UvwnHC/qcsTSEEsoUgN7va46bSDwTm+f/0i96Qqx7D1AM
FaHH5IixRxXfpGO6/oy6LgYlp3qS+JyhYuw4JrgSa8hK96jur7MIqQxEWbWx3zhQ
+o7rOld17OsAoZPWHjoxHD+Bh9XhpAaNG9jipA7eiz9WWEEg+ue5bSGIS5NKrVsY
zmxbPIi+yQK93gkGnZ9FMh5PfhLNi/fX
-----END CERTIFICATE-----
