Certificate:
    Data:
        Version: 3 (0x2)
        Serial Number: 1048580 (0x100004)
        Signature Algorithm: sha256WithRSAEncryption
        Issuer: CN=Hamiller Tube CA, C=US, ST=Massachusetts, O=Xamarin, OU=Engineering/emailAddress=martin.baulig@xamarin.com
        Validity
            Not Before: Aug 10 14:58:01 2016 GMT
            Not After : Aug  8 14:58:01 2026 GMT
        Subject: C=US, ST=Massachusetts, O=Xamarin, OU=Engineering, CN=Martins Monkey
        Subject Public Key Info:
            Public Key Algorithm: rsaEncryption
            RSA Public Key: (4096 bit)
                Modulus (4096 bit):
                    00:d2:40:07:b7:fc:75:96:bf:66:30:11:fc:4b:62:
                    30:c8:61:9e:28:4f:57:2f:e4:8b:7c:6f:a7:a2:7c:
                    32:cf:aa:6e:eb:5a:e6:70:f1:fe:00:c6:20:4e:08:
                    55:6d:07:2d:fc:5b:3d:33:32:67:87:a5:34:3c:b0:
                    86:0a:b9:e1:74:0d:58:f1:b7:f6:04:f8:6b:c0:e2:
                    d4:f5:d7:d3:48:b9:ab:a9:7c:b5:41:b2:97:fa:79:
                    c1:de:31:c1:c5:56:6b:29:44:53:81:37:e6:84:af:
                    fd:b4:16:2f:2b:bb:78:1a:c5:ae:4a:b1:0f:cd:e6:
                    6f:57:b8:04:62:13:58:66:f1:73:7e:09:77:22:32:
                    0d:5e:26:b0:be:a8:0b:5c:17:a1:fa:ab:04:2e:fa:
                    d0:ae:48:f1:04:3c:99:9b:32:70:d7:45:76:ec:aa:
                    d1:cb:87:ce:f8:02:5d:63:33:dc:51:22:33:fb:31:
                    15:1f:c8:50:f0:79:d5:e9:79:2f:ad:04:19:67:f6:
                    bf:e7:2f:ec:e2:f7:a8:aa:5a:01:21:92:5d:49:53:
                    e7:d1:5a:58:a5:5c:3a:7b:92:a5:19:d0:e6:2b:bf:
                    ac:2a:01:e5:e0:b3:69:ef:93:61:93:12:a8:1c:1a:
                    4b:36:43:50:44:dd:da:3c:f6:78:df:8e:00:7f:80:
                    95:f1:7b:55:07:d9:ec:7b:94:9d:73:46:cc:11:5b:
                    b1:f4:71:da:97:e3:b7:06:90:08:31:47:36:f7:b5:
                    ba:71:69:ed:08:a4:b4:6d:d3:7c:5f:d2:ac:69:0a:
                    fc:d0:68:bf:dc:8f:a2:53:63:bd:12:2e:d4:19:d7:
                    f7:b7:de:7b:9c:d7:ce:a1:27:19:44:47:ff:4d:d5:
                    1c:45:e2:e9:30:32:f9:a5:0c:c8:6c:12:14:ce:5f:
                    32:43:f2:84:b0:e5:81:24:68:aa:fc:76:43:0a:2e:
                    d9:c1:aa:2e:41:dc:d5:40:dd:41:2e:1f:67:25:b7:
                    60:f9:22:23:e6:22:30:f0:19:30:dd:18:41:ff:2e:
                    98:63:40:b1:19:5e:69:23:90:67:a4:b4:d2:9e:20:
                    f3:ca:f1:a4:f6:9b:16:b9:84:8c:03:c2:bd:ca:9b:
                    56:8b:06:43:21:ed:71:61:4d:ed:5e:cb:16:c3:df:
                    af:61:28:b1:f4:45:c8:e8:c8:d7:6e:fc:26:fc:e9:
                    04:65:18:02:bc:ff:42:9c:3a:51:68:51:26:ab:e8:
                    83:ad:2f:05:cd:f0:a6:44:5f:f4:3d:e0:09:5e:39:
                    e2:4e:32:9d:fc:37:f0:84:40:f3:0c:ba:a7:7f:91:
                    fb:b9:b9:b4:b3:a0:f9:d2:32:6c:d8:8b:ef:f7:88:
                    9f:7f:05
                Exponent: 65537 (0x10001)
        X509v3 extensions:
            X509v3 Key Usage: critical
                Digital Signature, Key Encipherment, Key Agreement
            X509v3 Extended Key Usage: critical
                TLS Web Client Authentication
    Signature Algorithm: sha256WithRSAEncryption
        0d:0e:3e:eb:83:82:3b:db:21:18:6d:32:c7:24:62:9a:56:69:
        86:5a:01:7f:b0:ad:31:d5:69:42:2d:23:ea:05:14:76:d5:ae:
        49:23:c2:cb:b2:a7:c2:42:7a:8e:0a:41:0e:95:74:f5:4a:37:
        9d:fe:08:f0:d2:0c:36:05:a8:ae:fd:90:8e:e1:2d:49:cc:24:
        f9:a7:f7:50:58:40:d0:c3:12:fc:b3:1d:43:9e:7e:9a:65:7c:
        62:c7:31:38:26:c8:20:4a:83:40:d0:e9:67:e6:d1:5f:e8:9c:
        51:56:8d:e0:50:d5:5c:fb:f1:ff:86:23:fa:99:4f:64:de:8f:
        f5:5c:a1:2c:a9:f7:b0:ab:b7:0d:84:f0:a2:7c:ee:50:8a:02:
        84:f9:de:bd:cd:43:2a:97:88:73:22:e1:7a:76:74:0d:d8:a7:
        ea:86:02:77:47:ba:79:bb:90:7e:a8:cb:8c:0b:e3:f6:ce:81:
        70:b1:d5:ae:aa:f7:9e:84:1a:63:10:f0:14:20:f4:3a:f2:5d:
        a7:7a:e3:a2:50:8b:43:a9:42:78:fc:aa:30:6d:ea:b5:7a:7f:
        36:d0:bd:92:d1:b9:97:22:90:ab:0d:61:8b:16:e4:ea:a2:8f:
        07:e7:8e:f5:ca:39:39:c3:7d:9f:8b:64:9c:df:fa:44:e8:e9:
        20:e0:53:1e:27:ae:cb:6b:8c:62:0c:52:bc:41:cd:78:f7:bf:
        c2:3a:82:73:ff:5b:bc:41:69:8f:bf:3c:7a:0b:cf:8a:2d:0a:
        09:93:2e:11:38:43:33:7f:80:43:b1:ab:19:84:db:fa:4e:90:
        1a:77:71:b6:79:ea:9d:ea:47:76:fa:bd:0e:fc:39:19:3a:76:
        f5:c5:19:58:4c:d7:71:58:36:be:a7:31:a8:98:98:31:aa:a0:
        4c:7c:a8:10:be:0d:f8:1c:f8:13:f9:0c:42:fa:e0:20:0f:d9:
        a9:bb:bd:e4:71:b2:10:26:5c:21:c5:0f:0b:06:34:5d:7a:d1:
        3c:37:b0:8c:1f:4a:ea:b3:6e:d5:45:ef:3f:89:d9:fd:c5:d5:
        e7:71:61:e6:28:6b:6f:53:0b:66:13:49:60:d9:68:b2:13:71:
        ff:6e:67:8b:94:73:4b:f8:99:e7:b2:8a:66:af:8a:c2:0f:68:
        72:19:52:30:03:28:00:d4:02:b5:40:47:38:97:37:cb:40:ad:
        f4:56:8d:20:0c:c1:78:1f:83:c7:79:e4:08:f8:51:3f:4e:54:
        7d:45:56:f6:0b:a1:b2:97:89:c5:2b:29:95:1e:19:24:cc:e8:
        b0:8a:aa:28:ff:29:63:fb:b5:92:0d:f8:90:33:0a:f7:e2:71:
        fc:dc:7c:de:9e:d8:06:98
-----BEGIN CERTIFICATE-----
MIIFoDCCA4igAwIBAgIDEAAEMA0GCSqGSIb3DQEBCwUAMIGSMRkwFwYDVQQDExBI
YW1pbGxlciBUdWJlIENBMQswCQYDVQQGEwJVUzEWMBQGA1UECBMNTWFzc2FjaHVz
ZXR0czEQMA4GA1UEChMHWGFtYXJpbjEUMBIGA1UECxMLRW5naW5lZXJpbmcxKDAm
BgkqhkiG9w0BCQEWGW1hcnRpbi5iYXVsaWdAeGFtYXJpbi5jb20wHhcNMTYwODEw
MTQ1ODAxWhcNMjYwODA4MTQ1ODAxWjBmMQswCQYDVQQGEwJVUzEWMBQGA1UECBMN
TWFzc2FjaHVzZXR0czEQMA4GA1UEChMHWGFtYXJpbjEUMBIGA1UECxMLRW5naW5l
ZXJpbmcxFzAVBgNVBAMTDk1hcnRpbnMgTW9ua2V5MIICIjANBgkqhkiG9w0BAQEF
AAOCAg8AMIICCgKCAgEA0kAHt/x1lr9mMBH8S2IwyGGeKE9XL+SLfG+nonwyz6pu
61rmcPH+AMYgTghVbQct/Fs9MzJnh6U0PLCGCrnhdA1Y8bf2BPhrwOLU9dfTSLmr
qXy1QbKX+nnB3jHBxVZrKURTgTfmhK/9tBYvK7t4GsWuSrEPzeZvV7gEYhNYZvFz
fgl3IjINXiawvqgLXBeh+qsELvrQrkjxBDyZmzJw10V27KrRy4fO+AJdYzPcUSIz
+zEVH8hQ8HnV6XkvrQQZZ/a/5y/s4veoqloBIZJdSVPn0VpYpVw6e5KlGdDmK7+s
KgHl4LNp75NhkxKoHBpLNkNQRN3aPPZ4344Af4CV8XtVB9nse5Sdc0bMEVux9HHa
l+O3BpAIMUc297W6cWntCKS0bdN8X9KsaQr80Gi/3I+iU2O9Ei7UGdf3t957nNfO
oScZREf/TdUcReLpMDL5pQzIbBIUzl8yQ/KEsOWBJGiq/HZDCi7ZwaouQdzVQN1B
Lh9nJbdg+SIj5iIw8Bkw3RhB/y6YY0CxGV5pI5BnpLTSniDzyvGk9psWuYSMA8K9
yptWiwZDIe1xYU3tXssWw9+vYSix9EXI6MjXbvwm/OkEZRgCvP9CnDpRaFEmq+iD
rS8FzfCmRF/0PeAJXjniTjKd/DfwhEDzDLqnf5H7ubm0s6D50jJs2Ivv94iffwUC
AwEAAaMqMCgwDgYDVR0PAQH/BAQDAgOoMBYGA1UdJQEB/wQMMAoGCCsGAQUFBwMC
MA0GCSqGSIb3DQEBCwUAA4ICAQANDj7rg4I72yEYbTLHJGKaVmmGWgF/sK0x1WlC
LSPqBRR21a5JI8LLsqfCQnqOCkEOlXT1Sjed/gjw0gw2Baiu/ZCO4S1JzCT5p/dQ
WEDQwxL8sx1Dnn6aZXxixzE4JsggSoNA0Oln5tFf6JxRVo3gUNVc+/H/hiP6mU9k
3o/1XKEsqfewq7cNhPCifO5QigKE+d69zUMql4hzIuF6dnQN2KfqhgJ3R7p5u5B+
qMuMC+P2zoFwsdWuqveehBpjEPAUIPQ68l2neuOiUItDqUJ4/Kowbeq1en820L2S
0bmXIpCrDWGLFuTqoo8H5471yjk5w32fi2Sc3/pE6Okg4FMeJ67La4xiDFK8Qc14
97/COoJz/1u8QWmPvzx6C8+KLQoJky4ROEMzf4BDsasZhNv6TpAad3G2eeqd6kd2
+r0O/DkZOnb1xRlYTNdxWDa+pzGomJgxqqBMfKgQvg34HPgT+QxC+uAgD9mpu73k
cbIQJlwhxQ8LBjRdetE8N7CMH0rqs27VRe8/idn9xdXncWHmKGtvUwtmE0lg2Wiy
E3H/bmeLlHNL+Jnnsopmr4rCD2hyGVIwAygA1AK1QEc4lzfLQK30Vo0gDMF4H4PH
eeQI+FE/TlR9RVb2C6Gyl4nFKymVHhkkzOiwiqoo/ylj+7WSDfiQMwr34nH83Hze
ntgGmA==
-----END CERTIFICATE-----
