Certificate:
    Data:
        Version: 3 (0x2)
        Serial Number: 1048579 (0x100003)
        Signature Algorithm: sha256WithRSAEncryption
        Issuer: CN=Hamiller Tube CA, C=US, ST=Massachusetts, O=Xamarin, OU=Engineering/emailAddress=martin.baulig@xamarin.com
        Validity
            Not Before: Aug 10 14:56:34 2016 GMT
            Not After : Aug  8 14:56:34 2026 GMT
        Subject: C=US, ST=Massachusetts, O=Xamarin, OU=Engineering, CN=Hamiller-Tube.local
        Subject Public Key Info:
            Public Key Algorithm: rsaEncryption
            RSA Public Key: (4096 bit)
                Modulus (4096 bit):
                    00:a8:a6:55:ec:82:7d:89:2c:fa:20:10:7f:15:16:
                    ec:76:54:1a:11:20:a6:89:61:2a:08:c1:3f:09:42:
                    62:fd:67:3a:81:42:2f:1e:f3:58:30:99:61:68:1c:
                    77:cf:d8:1e:df:ab:de:86:39:08:d3:47:d4:22:e5:
                    36:f6:63:fc:97:80:47:04:8d:52:16:a9:5d:87:15:
                    8b:79:ec:9a:85:a4:43:a9:21:33:d7:46:99:33:e1:
                    0d:c7:53:ad:e1:99:be:78:7e:67:c4:a7:a7:0a:b1:
                    29:13:11:1b:e6:4e:ae:77:23:e3:82:f7:62:1f:f5:
                    2b:58:27:42:a3:be:1c:dd:f9:33:e4:33:91:60:d3:
                    50:5d:c9:84:4d:c0:e6:a7:e7:11:dc:49:dc:e6:d9:
                    f2:e5:62:28:0c:fa:45:39:b4:e9:95:f6:6f:54:b0:
                    d9:1c:01:ff:7c:11:eb:6a:f8:31:e7:cb:f7:85:1c:
                    24:19:a4:3e:e3:d3:a9:2d:e6:d8:dd:b4:92:f8:5e:
                    9d:1c:1f:e1:0a:1e:18:09:46:38:76:47:2f:db:d8:
                    45:95:29:79:6c:82:a0:0c:e2:42:5c:2d:ce:f3:eb:
                    9c:c6:f6:6a:ad:51:3b:d9:6a:94:95:29:b8:ba:74:
                    ed:7b:e6:ab:42:76:79:9c:a6:3f:f7:88:b9:45:4e:
                    0b:e4:18:1a:72:91:5c:1d:7a:5d:f1:10:15:cb:7b:
                    49:bb:03:b4:ef:80:0d:d2:68:95:79:bd:0a:a6:91:
                    e9:b8:c4:71:18:73:11:79:74:de:56:90:74:da:ff:
                    16:05:21:a7:96:ac:4e:23:be:d2:4a:3c:bd:87:be:
                    af:35:d1:6e:80:56:aa:56:27:7b:a7:81:f1:ac:f7:
                    59:6f:a7:48:cb:30:17:87:d0:d2:a8:f4:f5:ef:65:
                    a0:0f:79:9a:bb:6f:53:8b:39:bb:47:8e:bd:75:57:
                    3a:8e:0b:8f:63:b7:c9:21:40:df:d1:0a:b2:f7:af:
                    f7:34:3e:9e:b9:81:df:99:dd:40:b7:41:ab:a3:20:
                    d6:4a:67:b8:96:5e:95:75:dd:6e:0a:f9:60:56:35:
                    bf:01:bf:9c:c9:ff:b3:a5:dc:06:f1:dd:c0:55:00:
                    a6:cd:f0:3f:69:7b:c1:83:ae:70:a2:60:3f:2e:08:
                    05:36:c3:0b:3b:af:d6:0a:66:1e:c3:70:8a:3c:17:
                    6b:25:7b:27:00:ff:08:58:73:bb:67:e6:68:da:27:
                    ff:15:1e:95:48:0e:52:75:9e:30:b8:1b:a5:39:35:
                    18:67:89:f4:8c:a7:16:68:73:a0:02:79:6a:ad:42:
                    82:82:ca:94:e0:b2:7b:88:fe:a0:2f:f3:97:f9:b3:
                    54:19:5f
                Exponent: 65537 (0x10001)
        X509v3 extensions:
            X509v3 Key Usage: critical
                Digital Signature, Key Encipherment
            X509v3 Extended Key Usage: critical
                TLS Web Server Authentication
    Signature Algorithm: sha256WithRSAEncryption
        55:bf:c5:7b:44:a6:75:a6:95:82:d3:13:00:fd:21:26:0e:3e:
        95:5c:59:74:fc:b2:7c:bc:f2:45:47:14:b7:5c:88:bf:11:2a:
        fa:b1:b4:f8:38:80:53:48:a9:87:e0:3e:e9:b6:17:10:de:f2:
        0a:b4:71:53:a7:c4:2b:3c:1e:9d:e8:54:f4:c6:35:53:ee:03:
        f7:a2:0c:59:d3:03:25:d7:c3:3d:5f:9c:10:bd:d8:3e:5d:f0:
        fb:1c:1f:29:34:9b:ac:80:82:ec:ad:73:a9:63:9a:fe:92:4c:
        60:d2:26:f1:b0:db:79:a6:b6:bf:a5:23:47:46:67:3c:2e:cd:
        6b:51:93:f6:49:4d:11:e4:60:a1:7c:15:d6:e2:db:85:59:fe:
        6e:8c:29:79:7d:ed:bd:15:30:3e:a7:cb:97:db:67:e2:15:50:
        a9:40:d2:ad:17:18:6e:46:0a:dc:31:7e:b0:6a:05:33:40:a3:
        ab:ea:a3:a8:54:85:4e:13:1a:b5:38:ea:77:27:f8:b9:b4:1f:
        8b:46:39:15:6f:cf:fd:95:7c:0a:14:41:3b:40:f8:24:71:67:
        d7:98:64:ff:9d:0e:fe:8c:d1:5d:73:d2:5c:e1:e7:8b:42:0b:
        22:5f:8e:ee:34:86:c8:74:fd:c1:4e:da:ee:a9:5d:4d:66:00:
        d7:63:4b:b8:d4:4b:f8:b1:6d:17:16:ae:92:92:cd:76:1c:61:
        bb:37:a5:c2:36:d8:72:9f:d2:ad:f5:db:cf:12:e7:55:9b:12:
        a2:7b:97:52:bc:01:48:a0:9a:54:ce:85:cc:86:8a:96:c7:3c:
        c2:43:76:e3:c7:52:04:66:ae:4b:86:0d:6e:5b:37:97:8a:89:
        d7:ab:1c:19:53:ea:c4:7c:ee:93:1d:67:f3:b1:fc:1e:f5:b3:
        75:be:ea:08:24:e1:0f:eb:a8:93:12:27:be:b1:01:e3:c9:a7:
        21:b1:48:97:cf:b8:ce:54:aa:cf:39:7b:98:1c:31:19:6d:9c:
        a4:dd:5f:b7:17:06:81:eb:c2:a9:1d:d1:5e:69:ec:2e:4d:45:
        8c:9f:66:60:de:40:31:e0:cf:ca:c3:63:bb:56:cb:7a:63:c6:
        b1:64:c9:29:68:30:51:6c:04:b1:d6:3e:82:67:51:ad:42:a7:
        41:c5:19:24:3e:42:b6:8d:24:e3:84:ef:04:e3:5f:68:61:c0:
        0a:be:b5:a7:4f:19:39:9c:5a:9b:34:ae:b7:2e:3e:3e:a9:a9:
        9c:22:34:d7:b7:08:50:6d:9c:50:f7:73:5a:05:3f:4d:52:bd:
        1c:66:fb:1d:00:c8:aa:03:79:d2:ca:97:ad:ef:47:5b:1d:ca:
        87:28:70:d9:b0:ef:80:fa
-----BEGIN CERTIFICATE-----
MIIFpTCCA42gAwIBAgIDEAADMA0GCSqGSIb3DQEBCwUAMIGSMRkwFwYDVQQDExBI
YW1pbGxlciBUdWJlIENBMQswCQYDVQQGEwJVUzEWMBQGA1UECBMNTWFzc2FjaHVz
ZXR0czEQMA4GA1UEChMHWGFtYXJpbjEUMBIGA1UECxMLRW5naW5lZXJpbmcxKDAm
BgkqhkiG9w0BCQEWGW1hcnRpbi5iYXVsaWdAeGFtYXJpbi5jb20wHhcNMTYwODEw
MTQ1NjM0WhcNMjYwODA4MTQ1NjM0WjBrMQswCQYDVQQGEwJVUzEWMBQGA1UECBMN
TWFzc2FjaHVzZXR0czEQMA4GA1UEChMHWGFtYXJpbjEUMBIGA1UECxMLRW5naW5l
ZXJpbmcxHDAaBgNVBAMTE0hhbWlsbGVyLVR1YmUubG9jYWwwggIiMA0GCSqGSIb3
DQEBAQUAA4ICDwAwggIKAoICAQCoplXsgn2JLPogEH8VFux2VBoRIKaJYSoIwT8J
QmL9ZzqBQi8e81gwmWFoHHfP2B7fq96GOQjTR9Qi5Tb2Y/yXgEcEjVIWqV2HFYt5
7JqFpEOpITPXRpkz4Q3HU63hmb54fmfEp6cKsSkTERvmTq53I+OC92If9StYJ0Kj
vhzd+TPkM5Fg01BdyYRNwOan5xHcSdzm2fLlYigM+kU5tOmV9m9UsNkcAf98Eetq
+DHny/eFHCQZpD7j06kt5tjdtJL4Xp0cH+EKHhgJRjh2Ry/b2EWVKXlsgqAM4kJc
Lc7z65zG9mqtUTvZapSVKbi6dO175qtCdnmcpj/3iLlFTgvkGBpykVwdel3xEBXL
e0m7A7TvgA3SaJV5vQqmkem4xHEYcxF5dN5WkHTa/xYFIaeWrE4jvtJKPL2Hvq81
0W6AVqpWJ3ungfGs91lvp0jLMBeH0NKo9PXvZaAPeZq7b1OLObtHjr11VzqOC49j
t8khQN/RCrL3r/c0Pp65gd+Z3UC3QaujINZKZ7iWXpV13W4K+WBWNb8Bv5zJ/7Ol
3Abx3cBVAKbN8D9pe8GDrnCiYD8uCAU2wws7r9YKZh7DcIo8F2sleycA/whYc7tn
5mjaJ/8VHpVIDlJ1njC4G6U5NRhnifSMpxZoc6ACeWqtQoKCypTgsnuI/qAv85f5
s1QZXwIDAQABoyowKDAOBgNVHQ8BAf8EBAMCBaAwFgYDVR0lAQH/BAwwCgYIKwYB
BQUHAwEwDQYJKoZIhvcNAQELBQADggIBAFW/xXtEpnWmlYLTEwD9ISYOPpVcWXT8
sny88kVHFLdciL8RKvqxtPg4gFNIqYfgPum2FxDe8gq0cVOnxCs8Hp3oVPTGNVPu
A/eiDFnTAyXXwz1fnBC92D5d8PscHyk0m6yAguytc6ljmv6STGDSJvGw23mmtr+l
I0dGZzwuzWtRk/ZJTRHkYKF8Fdbi24VZ/m6MKXl97b0VMD6ny5fbZ+IVUKlA0q0X
GG5GCtwxfrBqBTNAo6vqo6hUhU4TGrU46ncn+Lm0H4tGORVvz/2VfAoUQTtA+CRx
Z9eYZP+dDv6M0V1z0lzh54tCCyJfju40hsh0/cFO2u6pXU1mANdjS7jUS/ixbRcW
rpKSzXYcYbs3pcI22HKf0q31288S51WbEqJ7l1K8AUigmlTOhcyGipbHPMJDduPH
UgRmrkuGDW5bN5eKiderHBlT6sR87pMdZ/Ox/B71s3W+6ggk4Q/rqJMSJ76xAePJ
pyGxSJfPuM5Uqs85e5gcMRltnKTdX7cXBoHrwqkd0V5p7C5NRYyfZmDeQDHgz8rD
Y7tWy3pjxrFkySloMFFsBLHWPoJnUa1Cp0HFGSQ+QraNJOOE7wTjX2hhwAq+tadP
GTmcWps0rrcuPj6pqZwiNNe3CFBtnFD3c1oFP01SvRxm+x0AyKoDedLKl63vR1sd
yococNmw74D6
-----END CERTIFICATE-----
