Certificate:
    Data:
        Version: 1 (0x0)
        Serial Number: 1048580 (0x100004)
    Signature Algorithm: md5WithRSAEncryption
        Issuer: C=US, ST=Massachusetts, O=Xamarin, OU=Engineering, CN=Hamiller-Tube CA/emailAddress=martin.baulig@xamarin.com
        Validity
            Not Before: Aug  9 23:35:46 2015 GMT
            Not After : Aug  6 23:35:46 2025 GMT
        Subject: C=US, ST=Massachusetts, O=Xamarin, OU=Engineering, CN=Hamiller-Tube.local
        Subject Public Key Info:
            Public Key Algorithm: rsaEncryption
                Public-Key: (4096 bit)
                Modulus:
                    00:98:3e:ad:86:4a:b6:13:b0:57:b0:17:68:cd:16:
                    ec:0c:45:b3:0b:50:2f:de:41:95:3c:c7:e2:ce:b8:
                    a6:35:6f:15:0a:db:09:ad:77:fa:9a:b7:c6:28:e3:
                    d1:f4:3d:72:ae:24:74:ac:7b:f5:17:5f:61:ad:7a:
                    e3:07:ed:1b:93:7b:77:6e:de:f5:99:2a:cf:87:ac:
                    ce:38:98:9a:9a:1b:4e:40:1f:75:8d:b5:d2:35:45:
                    1f:b0:4b:2d:3b:65:cf:51:11:39:0e:65:53:0b:b6:
                    a0:1b:69:99:e8:66:1f:d4:1f:d2:c9:da:1d:ef:54:
                    6e:34:41:2f:29:67:13:f3:ea:ad:a6:55:75:14:86:
                    f8:28:3f:fe:2f:c6:62:e6:dc:ba:dd:d8:de:1b:28:
                    34:1a:2d:e4:ac:e8:90:bf:57:fb:8b:d6:98:b1:58:
                    11:d9:75:ef:3e:f6:86:cc:85:84:14:89:e0:15:09:
                    c4:85:bf:58:7f:f2:2f:27:5a:ea:37:ad:07:0b:86:
                    d0:71:44:c9:5f:b8:a3:ce:05:5d:ef:8e:9e:3e:97:
                    76:a4:1d:59:e1:a6:e8:fc:98:bf:c0:1c:a4:ab:82:
                    f9:3c:d5:2e:71:0c:88:38:d8:37:d4:e9:9e:a5:35:
                    c6:a2:3e:72:a1:3c:6a:21:49:7b:06:57:93:20:78:
                    4f:a9:0f:bb:40:85:e6:20:7d:a1:91:cb:f5:bc:86:
                    bf:d0:8b:59:f8:d1:6d:6c:a2:ca:64:bb:4e:59:f8:
                    e4:df:f8:d0:a1:eb:5a:3b:5a:68:73:6e:f8:0b:87:
                    9a:91:32:96:e6:5b:31:99:45:a2:ec:39:bd:35:57:
                    31:b8:35:13:c2:b5:04:77:9d:62:9e:95:3d:e2:bb:
                    c1:97:a2:52:2e:0a:ba:b3:14:f4:9f:bf:b9:00:3e:
                    d1:6e:bb:88:ba:d7:55:19:71:60:3f:af:b7:db:64:
                    b0:ed:61:35:79:4f:71:9f:35:40:de:9e:78:3a:ec:
                    ad:71:90:04:2d:b6:bb:d7:f7:e5:29:c5:01:b0:2d:
                    31:76:3d:4e:5f:57:19:5e:b4:42:55:3d:cc:c4:ea:
                    bf:6d:1c:3f:07:b3:bb:b5:29:6b:f6:93:62:66:26:
                    ae:4b:51:7f:05:e4:78:d2:86:11:df:14:f5:a1:28:
                    d8:0e:61:6b:05:dd:b0:f8:44:59:e8:23:82:27:ff:
                    95:b1:bb:65:63:11:ca:d2:ab:52:f4:0d:c9:a2:f3:
                    3d:44:bb:07:da:4f:88:d9:5c:47:3f:7b:c6:db:b1:
                    a0:19:7e:e6:74:8f:b3:08:96:cd:5c:cf:a7:37:5a:
                    63:7b:15:3d:83:88:54:5c:6e:fa:26:de:9d:68:31:
                    64:0a:5d
                Exponent: 65537 (0x10001)
    Signature Algorithm: md5WithRSAEncryption
         41:9d:f9:76:9e:e2:c0:d8:b6:c6:41:f7:79:ba:5c:d3:8e:4d:
         f6:7f:68:82:42:38:ca:68:bb:5b:74:91:84:c8:9c:8a:79:29:
         53:92:e0:92:1b:d6:2f:fc:7b:27:bd:1d:db:db:2e:b4:7a:35:
         62:25:71:41:38:ae:34:08:22:d4:4a:5e:48:0d:79:a8:47:74:
         63:6f:3e:67:15:4a:ce:99:70:d5:20:0a:a2:9f:34:90:5f:7b:
         ad:71:41:6e:43:69:e8:0a:a0:7b:dd:0d:36:59:d2:a9:51:43:
         57:90:99:ff:16:e5:01:53:67:71:8f:2c:16:ca:c9:e2:33:b1:
         ba:f4:0b:d7:52:9b:7b:f7:4e:71:2d:96:53:6b:fb:2a:69:ea:
         ef:e4:50:98:be:a6:b2:59:1e:a8:e0:99:2d:e4:db:58:7c:1c:
         13:e1:5f:51:db:78:a4:3a:b6:79:2a:c7:f9:d7:fb:76:c8:e0:
         f3:ce:50:64:99:bb:b1:a3:e6:91:aa:12:c9:22:9b:65:f7:00:
         3b:69:00:14:52:38:af:66:c2:a6:5e:ee:08:d6:12:94:1f:b6:
         94:a0:62:bd:30:87:c0:3c:26:dd:5e:b2:d1:58:8f:6f:bb:46:
         45:6e:e0:3c:e4:cf:6d:79:92:18:5a:e2:b2:1f:47:5b:7c:aa:
         4e:d5:cb:b9:e5:e5:ab:db:44:73:2f:80:97:3a:9f:ce:89:a8:
         9b:6e:ca:45:9e:ea:b6:88:b9:24:12:74:03:00:03:be:bb:00:
         82:e2:ad:13:7b:e1:e2:2b:51:40:73:40:8b:02:0e:89:b3:cd:
         e2:87:2c:8c:9c:12:ab:15:f5:15:14:a9:41:93:02:51:f6:48:
         a5:6f:e2:76:48:34:92:f4:9b:f8:9e:b3:51:c9:c4:f3:44:2b:
         28:f5:e1:5f:ac:7c:4c:33:5a:2d:2d:ce:cf:fc:ed:a8:6d:61:
         14:3b:0c:e7:2f:d1:f1:27:84:61:f2:f7:2b:2e:31:a7:bc:3b:
         7f:ee:61:82:f4:30:b1:fd:5a:1d:f9:ac:8f:d0:49:1c:fa:e3:
         8b:4b:89:5d:43:30:c3:06:ad:61:8c:c2:71:dd:c1:2b:7a:1c:
         19:48:e9:5c:b5:af:c7:2d:9f:d9:eb:fc:bc:61:8a:56:bc:cb:
         6d:29:ff:10:32:c4:9b:8a:a1:67:f0:c2:44:d6:02:33:c7:44:
         40:c8:05:ce:cd:c3:84:bb:14:1d:8c:0a:75:65:25:d4:64:ca:
         11:7b:56:39:da:a5:0b:ea:03:f4:1e:0a:cb:dd:a4:74:e9:ac:
         fd:dc:63:39:19:12:b5:95:d7:00:70:07:15:55:fc:44:c5:39:
         2b:9f:59:40:b2:df:9a:3d
-----BEGIN CERTIFICATE-----
MIIFdDCCA1wCAxAABDANBgkqhkiG9w0BAQQFADCBkjELMAkGA1UEBhMCVVMxFjAU
BgNVBAgTDU1hc3NhY2h1c2V0dHMxEDAOBgNVBAoTB1hhbWFyaW4xFDASBgNVBAsT
C0VuZ2luZWVyaW5nMRkwFwYDVQQDExBIYW1pbGxlci1UdWJlIENBMSgwJgYJKoZI
hvcNAQkBFhltYXJ0aW4uYmF1bGlnQHhhbWFyaW4uY29tMB4XDTE1MDgwOTIzMzU0
NloXDTI1MDgwNjIzMzU0NlowazELMAkGA1UEBhMCVVMxFjAUBgNVBAgTDU1hc3Nh
Y2h1c2V0dHMxEDAOBgNVBAoTB1hhbWFyaW4xFDASBgNVBAsTC0VuZ2luZWVyaW5n
MRwwGgYDVQQDExNIYW1pbGxlci1UdWJlLmxvY2FsMIICIjANBgkqhkiG9w0BAQEF
AAOCAg8AMIICCgKCAgEAmD6thkq2E7BXsBdozRbsDEWzC1Av3kGVPMfizrimNW8V
CtsJrXf6mrfGKOPR9D1yriR0rHv1F19hrXrjB+0bk3t3bt71mSrPh6zOOJiamhtO
QB91jbXSNUUfsEstO2XPURE5DmVTC7agG2mZ6GYf1B/Sydod71RuNEEvKWcT8+qt
plV1FIb4KD/+L8Zi5ty63djeGyg0Gi3krOiQv1f7i9aYsVgR2XXvPvaGzIWEFIng
FQnEhb9Yf/IvJ1rqN60HC4bQcUTJX7ijzgVd746ePpd2pB1Z4abo/Ji/wBykq4L5
PNUucQyIONg31OmepTXGoj5yoTxqIUl7BleTIHhPqQ+7QIXmIH2hkcv1vIa/0ItZ
+NFtbKLKZLtOWfjk3/jQoetaO1poc274C4eakTKW5lsxmUWi7Dm9NVcxuDUTwrUE
d51inpU94rvBl6JSLgq6sxT0n7+5AD7RbruIutdVGXFgP6+322Sw7WE1eU9xnzVA
3p54OuytcZAELba71/flKcUBsC0xdj1OX1cZXrRCVT3MxOq/bRw/B7O7tSlr9pNi
ZiauS1F/BeR40oYR3xT1oSjYDmFrBd2w+ERZ6COCJ/+VsbtlYxHK0qtS9A3JovM9
RLsH2k+I2VxHP3vG27GgGX7mdI+zCJbNXM+nN1pjexU9g4hUXG76Jt6daDFkCl0C
AwEAATANBgkqhkiG9w0BAQQFAAOCAgEAQZ35dp7iwNi2xkH3ebpc045N9n9ogkI4
ymi7W3SRhMicinkpU5LgkhvWL/x7J70d29sutHo1YiVxQTiuNAgi1EpeSA15qEd0
Y28+ZxVKzplw1SAKop80kF97rXFBbkNp6Aqge90NNlnSqVFDV5CZ/xblAVNncY8s
FsrJ4jOxuvQL11Kbe/dOcS2WU2v7Kmnq7+RQmL6mslkeqOCZLeTbWHwcE+FfUdt4
pDq2eSrH+df7dsjg885QZJm7saPmkaoSySKbZfcAO2kAFFI4r2bCpl7uCNYSlB+2
lKBivTCHwDwm3V6y0ViPb7tGRW7gPOTPbXmSGFrish9HW3yqTtXLueXlq9tEcy+A
lzqfzomom27KRZ7qtoi5JBJ0AwADvrsAguKtE3vh4itRQHNAiwIOibPN4ocsjJwS
qxX1FRSpQZMCUfZIpW/idkg0kvSb+J6zUcnE80QrKPXhX6x8TDNaLS3Oz/ztqG1h
FDsM5y/R8SeEYfL3Ky4xp7w7f+5hgvQwsf1aHfmsj9BJHPrji0uJXUMwwwatYYzC
cd3BK3ocGUjpXLWvxy2f2ev8vGGKVrzLbSn/EDLEm4qhZ/DCRNYCM8dEQMgFzs3D
hLsUHYwKdWUl1GTKEXtWOdqlC+oD9B4Ky92kdOms/dxjORkStZXXAHAHFVX8RMU5
K59ZQLLfmj0=
-----END CERTIFICATE-----
